(dp0
I0
(lp1
F1.0
aF0.0
aF0.0
aF0.0
aF0.0
asI1
(lp2
F0.0
aF1.0
aF0.0
aF0.0
aF0.0
asI2
(lp3
F0.0
aF0.0
aF1.0
aF0.0
aF0.0
asI3
(lp4
F0.0
aF0.0
aF0.0
aF1.0
aF0.0
asI4
(lp5
F0.0
aF0.0
aF0.0
aF0.0
aF1.0
as.