(dp0
I0
(lp1
I8
aI0
aI7
aI7
aI18
asI1
(lp2
I11
aI0
aI9
aI0
aI20
asI2
(lp3
I0
aI0
aI10
aI5
aI25
asI3
(lp4
I1
aI0
aI13
aI7
aI19
asI4
(lp5
I6
aI4
aI14
aI4
aI12
asI5
(lp6
I1
aI3
aI3
aI10
aI23
asI6
(lp7
I5
aI4
aI10
aI0
aI21
asI7
(lp8
I5
aI5
aI3
aI14
aI13
asI8
(lp9
I3
aI7
aI10
aI0
aI20
asI9
(lp10
I5
aI0
aI10
aI3
aI22
asI10
(lp11
I0
aI2
aI10
aI8
aI20
asI11
(lp12
I0
aI3
aI5
aI12
aI20
asI12
(lp13
I0
aI0
aI13
aI13
aI14
asI13
(lp14
I1
aI0
aI11
aI4
aI24
asI14
(lp15
I5
aI0
aI17
aI3
aI15
asI15
(lp16
I0
aI3
aI9
aI2
aI26
asI16
(lp17
I7
aI0
aI13
aI5
aI15
asI17
(lp18
I9
aI0
aI12
aI8
aI11
asI18
(lp19
I6
aI0
aI2
aI19
aI13
asI19
(lp20
I10
aI3
aI15
aI0
aI12
asI20
(lp21
I0
aI5
aI4
aI8
aI23
asI21
(lp22
I1
aI5
aI13
aI2
aI19
asI22
(lp23
I0
aI0
aI9
aI11
aI20
asI23
(lp24
I11
aI0
aI4
aI18
aI7
asI24
(lp25
I0
aI0
aI7
aI15
aI18
asI25
(lp26
I9
aI1
aI5
aI0
aI25
asI26
(lp27
I6
aI4
aI6
aI6
aI18
asI27
(lp28
I7
aI0
aI5
aI15
aI13
asI28
(lp29
I7
aI0
aI5
aI10
aI18
asI29
(lp30
I5
aI3
aI2
aI14
aI16
asI30
(lp31
I8
aI18
aI1
aI1
aI12
asI31
(lp32
I8
aI0
aI0
aI0
aI32
asI32
(lp33
I7
aI2
aI7
aI2
aI22
asI33
(lp34
I9
aI0
aI6
aI12
aI13
asI34
(lp35
I1
aI1
aI14
aI0
aI24
asI35
(lp36
I4
aI0
aI14
aI11
aI11
asI36
(lp37
I9
aI2
aI8
aI0
aI21
asI37
(lp38
I3
aI0
aI16
aI0
aI21
asI38
(lp39
I5
aI4
aI4
aI7
aI20
asI39
(lp40
I7
aI4
aI9
aI6
aI14
asI40
(lp41
I12
aI7
aI0
aI5
aI16
asI41
(lp42
I8
aI5
aI10
aI0
aI17
asI42
(lp43
I2
aI0
aI20
aI0
aI18
asI43
(lp44
I2
aI0
aI6
aI8
aI24
asI44
(lp45
I0
aI6
aI11
aI3
aI20
asI45
(lp46
I11
aI0
aI8
aI0
aI21
asI46
(lp47
I2
aI13
aI14
aI0
aI11
asI47
(lp48
I8
aI2
aI2
aI8
aI20
asI48
(lp49
I0
aI0
aI0
aI33
aI7
asI49
(lp50
I9
aI7
aI5
aI5
aI14
asI50
(lp51
I0
aI0
aI21
aI8
aI11
asI51
(lp52
I4
aI0
aI8
aI9
aI19
asI52
(lp53
I9
aI0
aI9
aI3
aI19
asI53
(lp54
I5
aI3
aI12
aI1
aI19
asI54
(lp55
I7
aI0
aI7
aI6
aI20
asI55
(lp56
I0
aI0
aI6
aI10
aI24
asI56
(lp57
I8
aI0
aI3
aI18
aI11
asI57
(lp58
I9
aI0
aI10
aI9
aI12
asI58
(lp59
I7
aI5
aI3
aI5
aI20
asI59
(lp60
I6
aI2
aI8
aI0
aI24
asI60
(lp61
I0
aI0
aI8
aI12
aI20
asI61
(lp62
I5
aI9
aI5
aI0
aI21
asI62
(lp63
I4
aI2
aI9
aI8
aI17
asI63
(lp64
I0
aI0
aI10
aI7
aI23
asI64
(lp65
I0
aI0
aI15
aI8
aI17
asI65
(lp66
I2
aI5
aI10
aI5
aI18
asI66
(lp67
I0
aI9
aI8
aI0
aI23
asI67
(lp68
I8
aI3
aI5
aI10
aI14
asI68
(lp69
I11
aI0
aI3
aI15
aI11
asI69
(lp70
I0
aI6
aI12
aI1
aI21
asI70
(lp71
I4
aI0
aI8
aI10
aI18
asI71
(lp72
I8
aI0
aI15
aI0
aI17
asI72
(lp73
I0
aI0
aI11
aI8
aI21
asI73
(lp74
I2
aI0
aI10
aI4
aI24
asI74
(lp75
I1
aI3
aI7
aI3
aI26
asI75
(lp76
I2
aI0
aI9
aI12
aI17
asI76
(lp77
I9
aI0
aI8
aI6
aI17
asI77
(lp78
I7
aI0
aI11
aI0
aI22
asI78
(lp79
I5
aI0
aI6
aI12
aI17
asI79
(lp80
I11
aI2
aI2
aI13
aI12
asI80
(lp81
I16
aI1
aI3
aI0
aI20
asI81
(lp82
I10
aI0
aI7
aI13
aI10
asI82
(lp83
I0
aI0
aI8
aI20
aI12
asI83
(lp84
I14
aI0
aI7
aI6
aI13
asI84
(lp85
I4
aI0
aI12
aI12
aI12
asI85
(lp86
I5
aI5
aI14
aI2
aI14
asI86
(lp87
I0
aI0
aI10
aI21
aI9
asI87
(lp88
I10
aI0
aI6
aI12
aI12
asI88
(lp89
I6
aI0
aI12
aI6
aI16
asI89
(lp90
I0
aI1
aI20
aI0
aI19
asI90
(lp91
I10
aI4
aI5
aI9
aI12
asI91
(lp92
I16
aI0
aI3
aI3
aI18
asI92
(lp93
I8
aI0
aI3
aI14
aI15
asI93
(lp94
I0
aI5
aI14
aI1
aI20
asI94
(lp95
I7
aI0
aI2
aI8
aI23
asI95
(lp96
I1
aI7
aI3
aI2
aI27
asI96
(lp97
I4
aI2
aI4
aI1
aI29
asI97
(lp98
I3
aI0
aI13
aI9
aI15
asI98
(lp99
I9
aI6
aI4
aI4
aI17
asI99
(lp100
I1
aI0
aI2
aI17
aI20
asI100
(lp101
I11
aI9
aI7
aI2
aI11
asI101
(lp102
I0
aI0
aI9
aI6
aI25
asI102
(lp103
I10
aI0
aI5
aI11
aI14
asI103
(lp104
I7
aI0
aI5
aI14
aI14
asI104
(lp105
I0
aI0
aI17
aI13
aI10
asI105
(lp106
I5
aI8
aI14
aI0
aI13
asI106
(lp107
I6
aI0
aI2
aI14
aI18
asI107
(lp108
I0
aI5
aI8
aI8
aI19
asI108
(lp109
I9
aI0
aI9
aI5
aI17
asI109
(lp110
I8
aI0
aI11
aI13
aI8
asI110
(lp111
I1
aI1
aI9
aI15
aI14
asI111
(lp112
I2
aI0
aI7
aI10
aI21
asI112
(lp113
I7
aI0
aI9
aI6
aI18
asI113
(lp114
I2
aI0
aI10
aI9
aI19
asI114
(lp115
I0
aI7
aI15
aI3
aI15
asI115
(lp116
I0
aI1
aI7
aI8
aI24
asI116
(lp117
I2
aI0
aI3
aI12
aI23
asI117
(lp118
I3
aI2
aI12
aI5
aI18
asI118
(lp119
I6
aI5
aI5
aI6
aI18
asI119
(lp120
I5
aI1
aI15
aI4
aI15
asI120
(lp121
I6
aI1
aI7
aI7
aI19
asI121
(lp122
I3
aI4
aI5
aI6
aI22
asI122
(lp123
I13
aI1
aI9
aI2
aI15
asI123
(lp124
I7
aI12
aI9
aI0
aI12
asI124
(lp125
I8
aI5
aI1
aI12
aI14
asI125
(lp126
I6
aI0
aI21
aI0
aI13
asI126
(lp127
I2
aI0
aI3
aI10
aI25
asI127
(lp128
I0
aI12
aI15
aI0
aI13
asI128
(lp129
I9
aI6
aI9
aI0
aI16
asI129
(lp130
I1
aI2
aI7
aI10
aI20
asI130
(lp131
I5
aI0
aI9
aI19
aI7
asI131
(lp132
I0
aI0
aI3
aI17
aI20
asI132
(lp133
I13
aI6
aI2
aI9
aI10
asI133
g85
sI134
(lp134
I8
aI0
aI7
aI9
aI16
asI135
(lp135
I1
aI4
aI12
aI4
aI19
asI136
(lp136
I6
aI0
aI1
aI10
aI23
asI137
(lp137
I0
aI0
aI12
aI11
aI17
asI138
(lp138
I14
aI1
aI2
aI4
aI19
asI139
(lp139
I4
aI0
aI6
aI10
aI20
asI140
(lp140
I3
aI0
aI4
aI15
aI18
asI141
(lp141
I2
aI7
aI12
aI0
aI19
asI142
(lp142
I0
aI2
aI13
aI5
aI20
asI143
(lp143
I8
aI1
aI8
aI10
aI13
asI144
(lp144
I8
aI2
aI3
aI6
aI21
asI145
(lp145
I5
aI0
aI2
aI9
aI24
asI146
(lp146
I5
aI9
aI15
aI0
aI11
asI147
(lp147
I5
aI0
aI9
aI8
aI18
asI148
(lp148
I2
aI0
aI9
aI18
aI11
asI149
(lp149
I5
aI4
aI5
aI9
aI17
asI150
(lp150
I4
aI0
aI8
aI11
aI17
asI151
(lp151
I1
aI10
aI15
aI1
aI13
asI152
(lp152
I1
aI0
aI5
aI13
aI21
asI153
(lp153
I11
aI0
aI9
aI2
aI18
asI154
(lp154
I8
aI2
aI9
aI1
aI20
asI155
(lp155
I0
aI1
aI13
aI4
aI22
asI156
(lp156
I7
aI4
aI1
aI4
aI24
asI157
(lp157
I8
aI0
aI7
aI14
aI11
asI158
(lp158
I0
aI0
aI13
aI16
aI11
asI159
(lp159
I3
aI3
aI5
aI11
aI18
asI160
(lp160
I9
aI0
aI6
aI16
aI9
asI161
(lp161
I9
aI0
aI10
aI0
aI21
asI162
(lp162
I3
aI4
aI9
aI0
aI24
asI163
(lp163
I8
aI4
aI2
aI5
aI21
asI164
(lp164
I6
aI5
aI8
aI0
aI21
asI165
(lp165
I13
aI0
aI7
aI1
aI19
asI166
(lp166
I6
aI0
aI9
aI8
aI17
asI167
(lp167
I6
aI0
aI12
aI8
aI14
asI168
g14
sI169
(lp168
I0
aI3
aI7
aI8
aI22
asI170
(lp169
I0
aI0
aI8
aI11
aI21
asI171
(lp170
I9
aI2
aI15
aI0
aI14
asI172
(lp171
I1
aI0
aI18
aI0
aI21
asI173
(lp172
I0
aI0
aI9
aI5
aI26
asI174
(lp173
I0
aI0
aI4
aI22
aI14
asI175
(lp174
I11
aI0
aI7
aI11
aI11
asI176
(lp175
I2
aI5
aI3
aI8
aI22
asI177
(lp176
I4
aI0
aI7
aI11
aI18
asI178
(lp177
I19
aI0
aI1
aI3
aI17
asI179
(lp178
I6
aI0
aI8
aI11
aI15
asI180
(lp179
I2
aI0
aI10
aI11
aI17
asI181
(lp180
I1
aI5
aI14
aI0
aI20
asI182
(lp181
I0
aI7
aI12
aI0
aI21
asI183
(lp182
I5
aI0
aI3
aI20
aI12
asI184
(lp183
I9
aI0
aI19
aI0
aI12
asI185
(lp184
I4
aI6
aI16
aI1
aI13
asI186
(lp185
I18
aI0
aI4
aI0
aI18
asI187
(lp186
I0
aI9
aI17
aI0
aI14
asI188
(lp187
I8
aI0
aI6
aI9
aI17
asI189
(lp188
I6
aI0
aI14
aI9
aI11
asI190
(lp189
I4
aI4
aI4
aI5
aI23
asI191
(lp190
I7
aI4
aI7
aI5
aI17
asI192
(lp191
I10
aI5
aI1
aI4
aI20
asI193
(lp192
I5
aI0
aI12
aI0
aI23
asI194
(lp193
I3
aI0
aI13
aI8
aI16
asI195
(lp194
I4
aI0
aI5
aI12
aI19
asI196
(lp195
I6
aI7
aI17
aI0
aI10
asI197
(lp196
I0
aI0
aI13
aI15
aI12
asI198
(lp197
I7
aI0
aI10
aI0
aI23
asI199
(lp198
I4
aI2
aI4
aI8
aI22
asI200
(lp199
I6
aI0
aI15
aI1
aI18
asI201
(lp200
I0
aI0
aI15
aI11
aI14
asI202
(lp201
I4
aI0
aI9
aI6
aI21
asI203
(lp202
I6
aI3
aI13
aI7
aI11
asI204
(lp203
I6
aI1
aI16
aI0
aI17
asI205
(lp204
I8
aI1
aI13
aI7
aI11
asI206
(lp205
I0
aI6
aI12
aI8
aI14
asI207
(lp206
I2
aI0
aI12
aI8
aI18
asI208
(lp207
I8
aI0
aI11
aI6
aI15
asI209
(lp208
I17
aI7
aI3
aI3
aI10
asI210
(lp209
I3
aI0
aI10
aI8
aI19
asI211
(lp210
I0
aI7
aI11
aI0
aI22
asI212
(lp211
I0
aI0
aI12
aI4
aI24
asI213
(lp212
I4
aI4
aI10
aI10
aI12
asI214
(lp213
I5
aI6
aI6
aI13
aI10
asI215
(lp214
I10
aI0
aI4
aI6
aI20
asI216
(lp215
I5
aI0
aI14
aI4
aI17
asI217
(lp216
I11
aI0
aI13
aI0
aI16
asI218
(lp217
I4
aI0
aI5
aI25
aI6
asI219
(lp218
I5
aI0
aI8
aI11
aI16
asI220
(lp219
I0
aI5
aI17
aI0
aI18
asI221
(lp220
I0
aI0
aI16
aI10
aI14
asI222
(lp221
I1
aI0
aI13
aI0
aI26
asI223
(lp222
I0
aI3
aI12
aI13
aI12
asI224
(lp223
I7
aI8
aI3
aI0
aI22
asI225
(lp224
I8
aI0
aI6
aI11
aI15
asI226
(lp225
I11
aI0
aI8
aI5
aI16
asI227
(lp226
I0
aI0
aI12
aI9
aI19
asI228
(lp227
I4
aI6
aI1
aI2
aI27
asI229
(lp228
I3
aI0
aI4
aI4
aI29
asI230
(lp229
I0
aI2
aI15
aI0
aI23
asI231
(lp230
I7
aI4
aI8
aI0
aI21
asI232
(lp231
I0
aI9
aI4
aI12
aI15
asI233
g209
sI234
(lp232
I1
aI0
aI8
aI13
aI18
asI235
(lp233
I8
aI5
aI7
aI0
aI20
asI236
(lp234
I8
aI9
aI6
aI5
aI12
asI237
(lp235
I6
aI0
aI17
aI8
aI9
asI238
(lp236
I7
aI4
aI9
aI3
aI17
asI239
(lp237
I11
aI7
aI3
aI0
aI19
asI240
(lp238
I1
aI8
aI8
aI3
aI20
asI241
(lp239
I4
aI11
aI9
aI4
aI12
asI242
(lp240
I3
aI0
aI11
aI3
aI23
asI243
(lp241
I3
aI3
aI11
aI8
aI15
asI244
(lp242
I9
aI2
aI2
aI9
aI18
asI245
(lp243
I2
aI5
aI1
aI8
aI24
asI246
(lp244
I3
aI0
aI10
aI2
aI25
asI247
(lp245
I1
aI2
aI3
aI11
aI23
asI248
g17
sI249
(lp246
I6
aI0
aI4
aI9
aI21
asI250
(lp247
I6
aI0
aI6
aI12
aI16
asI251
(lp248
I0
aI1
aI11
aI4
aI24
asI252
(lp249
I5
aI2
aI14
aI0
aI19
asI253
(lp250
I7
aI0
aI11
aI1
aI21
asI254
(lp251
I1
aI0
aI8
aI14
aI17
asI255
(lp252
I3
aI0
aI0
aI8
aI29
asI256
(lp253
I1
aI1
aI15
aI0
aI23
asI257
(lp254
I2
aI1
aI9
aI1
aI27
asI258
(lp255
I0
aI11
aI13
aI5
aI11
asI259
(lp256
I0
aI4
aI3
aI0
aI33
asI260
(lp257
I8
aI0
aI4
aI10
aI18
asI261
(lp258
I2
aI10
aI4
aI0
aI24
asI262
(lp259
I10
aI0
aI10
aI9
aI11
asI263
(lp260
I6
aI1
aI14
aI3
aI16
asI264
(lp261
I4
aI0
aI15
aI9
aI12
asI265
(lp262
I5
aI2
aI10
aI7
aI16
asI266
(lp263
I3
aI4
aI5
aI5
aI23
asI267
(lp264
I0
aI1
aI13
aI5
aI21
asI268
(lp265
I7
aI5
aI3
aI8
aI17
asI269
(lp266
I6
aI2
aI4
aI4
aI24
asI270
(lp267
I0
aI11
aI6
aI8
aI15
asI271
(lp268
I6
aI0
aI10
aI6
aI18
asI272
(lp269
I3
aI0
aI11
aI8
aI18
asI273
(lp270
I9
aI3
aI7
aI9
aI12
asI274
(lp271
I2
aI4
aI12
aI0
aI22
asI275
(lp272
I3
aI10
aI6
aI0
aI21
asI276
g64
sI277
(lp273
I10
aI4
aI12
aI3
aI11
asI278
(lp274
I5
aI4
aI6
aI1
aI24
asI279
(lp275
I11
aI8
aI1
aI10
aI10
asI280
(lp276
I5
aI0
aI3
aI19
aI13
asI281
(lp277
I6
aI3
aI12
aI0
aI19
asI282
g65
sI283
(lp278
I0
aI2
aI10
aI7
aI21
asI284
(lp279
I0
aI0
aI4
aI5
aI31
asI285
(lp280
I3
aI4
aI13
aI0
aI20
asI286
(lp281
I5
aI0
aI10
aI12
aI13
asI287
(lp282
I0
aI8
aI9
aI0
aI23
asI288
(lp283
I7
aI0
aI6
aI10
aI17
asI289
(lp284
I10
aI3
aI2
aI2
aI23
asI290
(lp285
I0
aI0
aI14
aI5
aI21
asI291
(lp286
I6
aI2
aI11
aI0
aI21
asI292
(lp287
I4
aI0
aI12
aI0
aI24
asI293
(lp288
I1
aI0
aI9
aI17
aI13
asI294
(lp289
I0
aI18
aI10
aI0
aI12
asI295
(lp290
I9
aI0
aI5
aI10
aI16
asI296
(lp291
I4
aI0
aI0
aI3
aI33
asI297
(lp292
I3
aI5
aI13
aI2
aI17
asI298
(lp293
I3
aI0
aI13
aI7
aI17
asI299
(lp294
I0
aI0
aI6
aI18
aI16
asI300
(lp295
I5
aI5
aI12
aI3
aI15
asI301
(lp296
I9
aI4
aI8
aI0
aI19
asI302
(lp297
I2
aI7
aI10
aI7
aI14
asI303
(lp298
I9
aI10
aI10
aI0
aI11
asI304
(lp299
I7
aI0
aI3
aI20
aI10
asI305
(lp300
I4
aI0
aI7
aI10
aI19
asI306
(lp301
I1
aI3
aI6
aI10
aI20
asI307
(lp302
I5
aI0
aI13
aI7
aI15
asI308
(lp303
I9
aI0
aI7
aI7
aI17
asI309
(lp304
I5
aI0
aI9
aI0
aI26
asI310
(lp305
I8
aI1
aI2
aI15
aI14
asI311
(lp306
I0
aI0
aI11
aI5
aI24
asI312
(lp307
I0
aI2
aI16
aI0
aI22
asI313
(lp308
I0
aI11
aI18
aI0
aI11
asI314
(lp309
I5
aI0
aI7
aI16
aI12
asI315
(lp310
I0
aI0
aI14
aI9
aI17
asI316
(lp311
I3
aI6
aI11
aI0
aI20
asI317
(lp312
I7
aI0
aI2
aI16
aI15
asI318
(lp313
I6
aI0
aI9
aI6
aI19
asI319
(lp314
I4
aI2
aI5
aI0
aI29
asI320
(lp315
I4
aI8
aI18
aI0
aI10
asI321
(lp316
I9
aI7
aI12
aI0
aI12
asI322
(lp317
I6
aI5
aI4
aI2
aI23
asI323
(lp318
I12
aI0
aI5
aI4
aI19
asI324
(lp319
I5
aI0
aI13
aI2
aI20
asI325
(lp320
I2
aI0
aI11
aI10
aI17
asI326
(lp321
I0
aI0
aI16
aI7
aI17
asI327
(lp322
I4
aI5
aI10
aI6
aI15
asI328
(lp323
I0
aI0
aI14
aI8
aI18
asI329
(lp324
I0
aI0
aI9
aI19
aI12
asI330
(lp325
I10
aI13
aI2
aI0
aI15
asI331
(lp326
I5
aI4
aI15
aI4
aI12
asI332
(lp327
I3
aI3
aI4
aI9
aI21
asI333
(lp328
I0
aI7
aI14
aI0
aI19
asI334
(lp329
I5
aI0
aI14
aI0
aI21
asI335
(lp330
I6
aI0
aI9
aI11
aI14
asI336
(lp331
I14
aI4
aI1
aI0
aI21
asI337
(lp332
I0
aI4
aI9
aI7
aI20
asI338
(lp333
I1
aI0
aI11
aI9
aI19
asI339
(lp334
I0
aI9
aI12
aI0
aI19
asI340
(lp335
I3
aI7
aI12
aI0
aI18
asI341
(lp336
I5
aI0
aI1
aI10
aI24
asI342
(lp337
I5
aI4
aI11
aI1
aI19
asI343
(lp338
I4
aI2
aI13
aI5
aI16
asI344
(lp339
I4
aI1
aI11
aI0
aI24
asI345
(lp340
I3
aI9
aI9
aI7
aI12
asI346
(lp341
I7
aI3
aI8
aI7
aI15
asI347
(lp342
I9
aI3
aI0
aI0
aI28
asI348
(lp343
I7
aI1
aI15
aI1
aI16
asI349
(lp344
I0
aI7
aI11
aI5
aI17
asI350
(lp345
I0
aI7
aI11
aI6
aI16
asI351
(lp346
I0
aI0
aI19
aI6
aI15
asI352
(lp347
I0
aI1
aI9
aI4
aI26
asI353
(lp348
I0
aI6
aI3
aI7
aI24
asI354
(lp349
I10
aI0
aI15
aI1
aI14
asI355
(lp350
I6
aI7
aI2
aI1
aI24
asI356
(lp351
I6
aI0
aI10
aI0
aI24
asI357
(lp352
I7
aI1
aI2
aI2
aI28
asI358
(lp353
I2
aI0
aI3
aI13
aI22
asI359
(lp354
I1
aI3
aI11
aI7
aI18
asI360
(lp355
I10
aI4
aI2
aI0
aI24
asI361
(lp356
I4
aI0
aI2
aI13
aI21
asI362
(lp357
I2
aI0
aI5
aI10
aI23
asI363
(lp358
I0
aI0
aI4
aI13
aI23
asI364
(lp359
I5
aI4
aI13
aI6
aI12
asI365
(lp360
I8
aI0
aI3
aI9
aI20
asI366
(lp361
I8
aI0
aI5
aI16
aI11
asI367
(lp362
I2
aI3
aI5
aI17
aI13
asI368
(lp363
I3
aI0
aI2
aI17
aI18
asI369
(lp364
I11
aI7
aI11
aI0
aI11
asI370
(lp365
I4
aI0
aI9
aI3
aI24
asI371
(lp366
I0
aI12
aI9
aI6
aI13
asI372
(lp367
I4
aI0
aI5
aI11
aI20
asI373
(lp368
I4
aI6
aI17
aI1
aI12
asI374
(lp369
I6
aI2
aI5
aI6
aI21
asI375
(lp370
I4
aI0
aI7
aI0
aI29
asI376
(lp371
I8
aI0
aI11
aI0
aI21
asI377
(lp372
I3
aI0
aI3
aI9
aI25
asI378
(lp373
I1
aI4
aI9
aI8
aI18
asI379
(lp374
I0
aI8
aI3
aI6
aI23
asI380
(lp375
I7
aI0
aI24
aI0
aI9
asI381
(lp376
I0
aI0
aI14
aI7
aI19
asI382
(lp377
I7
aI0
aI14
aI9
aI10
asI383
(lp378
I1
aI0
aI14
aI6
aI19
asI384
(lp379
I1
aI0
aI22
aI7
aI10
asI385
(lp380
I7
aI0
aI7
aI10
aI16
asI386
(lp381
I6
aI7
aI7
aI1
aI19
asI387
(lp382
I6
aI3
aI11
aI7
aI13
asI388
(lp383
I2
aI8
aI14
aI3
aI13
asI389
(lp384
I1
aI3
aI12
aI2
aI22
asI390
(lp385
I0
aI0
aI4
aI0
aI36
asI391
(lp386
I9
aI0
aI5
aI1
aI25
asI392
(lp387
I4
aI0
aI11
aI9
aI16
asI393
(lp388
I12
aI0
aI0
aI12
aI16
asI394
(lp389
I9
aI0
aI6
aI13
aI12
asI395
(lp390
I5
aI1
aI9
aI5
aI20
asI396
g257
sI397
(lp391
I8
aI2
aI6
aI3
aI21
asI398
(lp392
I5
aI6
aI8
aI0
aI21
asI399
(lp393
I1
aI0
aI2
aI10
aI27
asI400
(lp394
I8
aI0
aI13
aI5
aI14
asI401
(lp395
I1
aI0
aI2
aI7
aI30
asI402
(lp396
I8
aI0
aI1
aI10
aI21
asI403
(lp397
I0
aI5
aI9
aI2
aI24
asI404
(lp398
I8
aI6
aI1
aI0
aI25
asI405
(lp399
I0
aI0
aI13
aI7
aI20
asI406
(lp400
I8
aI4
aI9
aI0
aI19
asI407
(lp401
I9
aI0
aI4
aI10
aI17
asI408
(lp402
I12
aI0
aI5
aI1
aI22
asI409
g67
sI410
(lp403
I4
aI0
aI14
aI2
aI20
asI411
(lp404
I0
aI2
aI3
aI12
aI23
asI412
(lp405
I3
aI0
aI8
aI7
aI22
asI413
(lp406
I1
aI7
aI5
aI1
aI26
asI414
(lp407
I0
aI0
aI20
aI4
aI16
asI415
(lp408
I3
aI17
aI7
aI1
aI12
asI416
(lp409
I4
aI3
aI8
aI8
aI17
asI417
(lp410
I6
aI0
aI10
aI4
aI20
asI418
(lp411
I6
aI0
aI3
aI12
aI19
asI419
g374
sI420
(lp412
I10
aI0
aI3
aI2
aI25
asI421
(lp413
I0
aI11
aI6
aI0
aI23
asI422
(lp414
I7
aI0
aI13
aI9
aI11
asI423
(lp415
I2
aI2
aI10
aI6
aI20
asI424
(lp416
I6
aI1
aI6
aI6
aI21
asI425
(lp417
I4
aI0
aI15
aI6
aI15
asI426
(lp418
I3
aI7
aI4
aI14
aI12
asI427
g52
sI428
(lp419
I1
aI0
aI8
aI10
aI21
asI429
(lp420
I4
aI1
aI6
aI0
aI29
asI430
(lp421
I10
aI0
aI9
aI11
aI10
asI431
(lp422
I2
aI0
aI10
aI2
aI26
asI432
(lp423
I1
aI2
aI9
aI0
aI28
asI433
(lp424
I5
aI3
aI5
aI10
aI17
asI434
(lp425
I9
aI3
aI2
aI9
aI17
asI435
(lp426
I6
aI6
aI2
aI5
aI21
asI436
(lp427
I4
aI4
aI7
aI13
aI12
asI437
(lp428
I9
aI0
aI11
aI3
aI17
asI438
(lp429
I6
aI4
aI12
aI0
aI18
asI439
g199
sI440
g131
sI441
(lp430
I0
aI14
aI6
aI0
aI20
asI442
(lp431
I1
aI1
aI14
aI10
aI14
asI443
(lp432
I7
aI10
aI8
aI4
aI11
asI444
(lp433
I1
aI0
aI16
aI2
aI21
asI445
(lp434
I0
aI1
aI6
aI6
aI27
asI446
(lp435
I9
aI0
aI7
aI8
aI16
asI447
(lp436
I0
aI0
aI14
aI11
aI15
asI448
(lp437
I15
aI0
aI6
aI2
aI17
asI449
(lp438
I9
aI4
aI11
aI3
aI13
asI450
(lp439
I12
aI3
aI5
aI1
aI19
asI451
(lp440
I2
aI5
aI6
aI9
aI18
asI452
(lp441
I7
aI0
aI12
aI8
aI13
asI453
(lp442
I3
aI0
aI12
aI11
aI14
asI454
(lp443
I8
aI2
aI14
aI0
aI16
asI455
(lp444
I10
aI6
aI6
aI0
aI18
asI456
(lp445
I5
aI0
aI3
aI10
aI22
asI457
(lp446
I4
aI0
aI4
aI10
aI22
asI458
(lp447
I0
aI0
aI12
aI8
aI20
asI459
(lp448
I2
aI10
aI5
aI0
aI23
asI460
(lp449
I1
aI0
aI13
aI9
aI17
asI461
(lp450
I5
aI0
aI8
aI13
aI14
asI462
(lp451
I3
aI4
aI11
aI7
aI15
asI463
(lp452
I13
aI0
aI1
aI18
aI8
asI464
(lp453
I2
aI0
aI14
aI10
aI14
asI465
(lp454
I0
aI0
aI4
aI17
aI19
asI466
(lp455
I2
aI0
aI10
aI5
aI23
asI467
(lp456
I3
aI7
aI3
aI6
aI21
asI468
g430
sI469
(lp457
I5
aI0
aI12
aI3
aI20
asI470
(lp458
I0
aI0
aI10
aI15
aI15
asI471
(lp459
I1
aI12
aI4
aI2
aI21
asI472
(lp460
I4
aI0
aI14
aI0
aI22
asI473
(lp461
I7
aI0
aI9
aI10
aI14
asI474
g324
sI475
(lp462
I7
aI0
aI7
aI4
aI22
asI476
(lp463
I0
aI1
aI18
aI5
aI16
asI477
g262
sI478
(lp464
I7
aI0
aI4
aI14
aI15
asI479
(lp465
I6
aI8
aI13
aI0
aI13
asI480
(lp466
I3
aI2
aI10
aI3
aI22
asI481
(lp467
I6
aI0
aI7
aI6
aI21
asI482
(lp468
I0
aI5
aI12
aI2
aI21
asI483
g462
sI484
(lp469
I0
aI6
aI3
aI13
aI18
asI485
(lp470
I0
aI5
aI13
aI1
aI21
asI486
(lp471
I5
aI1
aI11
aI0
aI23
asI487
g110
sI488
(lp472
I10
aI4
aI6
aI5
aI15
asI489
(lp473
I7
aI3
aI7
aI4
aI19
asI490
(lp474
I7
aI0
aI13
aI10
aI10
asI491
(lp475
I5
aI1
aI10
aI1
aI23
asI492
(lp476
I2
aI0
aI4
aI9
aI25
asI493
(lp477
I3
aI4
aI3
aI5
aI25
asI494
(lp478
I9
aI0
aI8
aI13
aI10
asI495
(lp479
I6
aI0
aI13
aI9
aI12
asI496
(lp480
I0
aI11
aI12
aI0
aI17
asI497
(lp481
I0
aI0
aI17
aI4
aI19
asI498
(lp482
I7
aI3
aI2
aI13
aI15
asI499
(lp483
I12
aI0
aI2
aI19
aI7
asI500
(lp484
I4
aI3
aI9
aI12
aI12
asI501
g402
sI502
(lp485
I6
aI0
aI22
aI0
aI12
asI503
(lp486
I9
aI1
aI20
aI0
aI10
asI504
(lp487
I13
aI0
aI2
aI17
aI8
asI505
(lp488
I0
aI8
aI3
aI0
aI29
asI506
(lp489
I0
aI0
aI11
aI4
aI25
asI507
(lp490
I0
aI2
aI14
aI1
aI23
asI508
(lp491
I1
aI3
aI8
aI4
aI24
asI509
(lp492
I0
aI0
aI2
aI21
aI17
asI510
(lp493
I5
aI0
aI7
aI6
aI22
asI511
(lp494
I11
aI0
aI5
aI4
aI20
asI512
(lp495
I8
aI0
aI2
aI10
aI20
asI513
(lp496
I0
aI1
aI8
aI10
aI21
asI514
(lp497
I0
aI0
aI11
aI7
aI22
asI515
(lp498
I9
aI2
aI11
aI6
aI12
asI516
(lp499
I4
aI0
aI7
aI6
aI23
asI517
(lp500
I5
aI2
aI9
aI6
aI18
asI518
(lp501
I2
aI2
aI9
aI12
aI15
asI519
(lp502
I3
aI0
aI9
aI7
aI21
asI520
(lp503
I8
aI5
aI4
aI2
aI21
asI521
(lp504
I0
aI0
aI11
aI9
aI20
asI522
(lp505
I9
aI8
aI10
aI0
aI13
asI523
(lp506
I12
aI2
aI2
aI8
aI16
asI524
(lp507
I0
aI6
aI7
aI11
aI16
asI525
(lp508
I0
aI5
aI3
aI8
aI24
asI526
(lp509
I13
aI4
aI1
aI5
aI17
asI527
(lp510
I3
aI0
aI5
aI8
aI24
asI528
(lp511
I3
aI3
aI4
aI18
aI12
asI529
(lp512
I6
aI5
aI12
aI0
aI17
asI530
(lp513
I2
aI9
aI16
aI0
aI13
asI531
(lp514
I0
aI4
aI10
aI10
aI16
asI532
(lp515
I5
aI0
aI9
aI6
aI20
asI533
(lp516
I0
aI0
aI19
aI1
aI20
asI534
(lp517
I0
aI12
aI9
aI0
aI19
asI535
(lp518
I6
aI4
aI7
aI4
aI19
asI536
(lp519
I0
aI0
aI9
aI1
aI30
asI537
g410
sI538
g23
sI539
(lp520
I6
aI0
aI13
aI0
aI21
asI540
(lp521
I8
aI1
aI6
aI13
aI12
asI541
(lp522
I2
aI1
aI14
aI0
aI23
asI542
(lp523
I3
aI5
aI11
aI10
aI11
asI543
(lp524
I0
aI0
aI14
aI1
aI25
asI544
(lp525
I0
aI0
aI3
aI0
aI37
asI545
(lp526
I10
aI5
aI3
aI8
aI14
asI546
(lp527
I19
aI0
aI0
aI2
aI19
asI547
(lp528
I4
aI11
aI11
aI0
aI14
asI548
g304
sI549
(lp529
I10
aI0
aI12
aI6
aI12
asI550
(lp530
I6
aI4
aI3
aI4
aI23
asI551
(lp531
I0
aI0
aI15
aI10
aI15
asI552
(lp532
I7
aI0
aI9
aI0
aI24
asI553
(lp533
I0
aI7
aI15
aI6
aI12
asI554
(lp534
I9
aI0
aI15
aI0
aI16
asI555
(lp535
I5
aI4
aI2
aI10
aI19
asI556
(lp536
I3
aI10
aI15
aI0
aI12
asI557
(lp537
I0
aI1
aI12
aI15
aI12
asI558
(lp538
I1
aI6
aI10
aI4
aI19
asI559
(lp539
I6
aI12
aI9
aI2
aI11
asI560
(lp540
I0
aI5
aI2
aI6
aI27
asI561
(lp541
I0
aI0
aI13
aI10
aI17
asI562
(lp542
I7
aI0
aI9
aI7
aI17
asI563
g147
sI564
(lp543
I8
aI2
aI7
aI12
aI11
asI565
(lp544
I0
aI2
aI8
aI10
aI20
asI566
(lp545
I8
aI8
aI6
aI0
aI18
asI567
(lp546
I5
aI2
aI7
aI10
aI16
asI568
(lp547
I8
aI7
aI12
aI0
aI13
asI569
(lp548
I10
aI0
aI12
aI8
aI10
asI570
(lp549
I8
aI0
aI7
aI8
aI17
asI571
(lp550
I0
aI1
aI16
aI1
aI22
asI572
(lp551
I0
aI7
aI4
aI11
aI18
asI573
g51
sI574
(lp552
I3
aI0
aI14
aI3
aI20
asI575
(lp553
I1
aI0
aI8
aI20
aI11
asI576
(lp554
I7
aI6
aI7
aI0
aI20
asI577
(lp555
I3
aI0
aI6
aI18
aI13
asI578
(lp556
I7
aI5
aI10
aI0
aI18
asI579
(lp557
I4
aI0
aI16
aI0
aI20
asI580
(lp558
I0
aI10
aI7
aI0
aI23
asI581
(lp559
I2
aI0
aI2
aI14
aI22
asI582
(lp560
I14
aI2
aI7
aI1
aI16
asI583
g257
sI584
(lp561
I0
aI0
aI5
aI7
aI28
asI585
(lp562
I9
aI0
aI11
aI2
aI18
asI586
(lp563
I11
aI9
aI5
aI4
aI11
asI587
(lp564
I0
aI1
aI18
aI9
aI12
asI588
(lp565
I9
aI0
aI12
aI2
aI17
asI589
g422
sI590
(lp566
I4
aI2
aI7
aI11
aI16
asI591
(lp567
I5
aI0
aI14
aI2
aI19
asI592
(lp568
I4
aI0
aI8
aI8
aI20
asI593
(lp569
I8
aI1
aI7
aI9
aI15
asI594
(lp570
I10
aI3
aI1
aI0
aI26
asI595
(lp571
I4
aI0
aI0
aI23
aI13
asI596
(lp572
I14
aI0
aI7
aI1
aI18
asI597
(lp573
I3
aI0
aI12
aI7
aI18
asI598
g516
sI599
(lp574
I0
aI5
aI10
aI6
aI19
asI600
(lp575
I0
aI4
aI4
aI2
aI30
asI601
(lp576
I6
aI0
aI5
aI7
aI22
asI602
(lp577
I3
aI0
aI21
aI0
aI16
asI603
(lp578
I6
aI2
aI14
aI7
aI11
asI604
(lp579
I6
aI0
aI4
aI15
aI15
asI605
(lp580
I12
aI0
aI6
aI12
aI10
asI606
(lp581
I13
aI0
aI1
aI8
aI18
asI607
(lp582
I10
aI0
aI2
aI2
aI26
asI608
(lp583
I11
aI7
aI1
aI9
aI12
asI609
(lp584
I1
aI0
aI17
aI2
aI20
asI610
(lp585
I3
aI3
aI14
aI0
aI20
asI611
(lp586
I7
aI4
aI4
aI13
aI12
asI612
(lp587
I0
aI4
aI24
aI0
aI12
asI613
(lp588
I1
aI5
aI10
aI9
aI15
asI614
(lp589
I1
aI0
aI19
aI7
aI13
asI615
(lp590
I5
aI0
aI15
aI3
aI17
asI616
(lp591
I3
aI0
aI8
aI5
aI24
asI617
(lp592
I0
aI8
aI8
aI0
aI24
asI618
(lp593
I5
aI3
aI3
aI7
aI22
asI619
(lp594
I5
aI0
aI4
aI12
aI19
asI620
(lp595
I1
aI0
aI0
aI10
aI29
asI621
(lp596
I6
aI0
aI15
aI0
aI19
asI622
(lp597
I8
aI3
aI3
aI4
aI22
asI623
(lp598
I4
aI2
aI17
aI2
aI15
asI624
(lp599
I4
aI4
aI10
aI7
aI15
asI625
g453
sI626
(lp600
I10
aI13
aI5
aI1
aI11
asI627
(lp601
I5
aI1
aI4
aI10
aI20
asI628
(lp602
I4
aI0
aI13
aI10
aI13
asI629
(lp603
I5
aI3
aI12
aI4
aI16
asI630
(lp604
I2
aI4
aI7
aI13
aI14
asI631
(lp605
I6
aI0
aI12
aI3
aI19
asI632
(lp606
I0
aI2
aI28
aI0
aI10
asI633
(lp607
I5
aI3
aI9
aI6
aI17
asI634
(lp608
I4
aI9
aI9
aI0
aI18
asI635
(lp609
I1
aI4
aI13
aI0
aI22
asI636
(lp610
I9
aI0
aI1
aI11
aI19
asI637
(lp611
I8
aI7
aI3
aI4
aI18
asI638
(lp612
I6
aI2
aI5
aI5
aI22
asI639
(lp613
I0
aI3
aI14
aI10
aI13
asI640
(lp614
I0
aI5
aI11
aI4
aI20
asI641
(lp615
I6
aI0
aI7
aI9
aI18
asI642
(lp616
I3
aI0
aI13
aI1
aI23
asI643
(lp617
I1
aI6
aI4
aI9
aI20
asI644
(lp618
I6
aI0
aI0
aI14
aI20
asI645
(lp619
I14
aI4
aI4
aI4
aI14
asI646
(lp620
I1
aI14
aI4
aI6
aI15
asI647
(lp621
I0
aI5
aI15
aI8
aI12
asI648
(lp622
I4
aI6
aI12
aI0
aI18
asI649
(lp623
I0
aI5
aI8
aI5
aI22
asI650
(lp624
I5
aI5
aI9
aI2
aI19
asI651
(lp625
I1
aI0
aI10
aI1
aI28
asI652
(lp626
I2
aI15
aI4
aI1
aI18
asI653
(lp627
I4
aI0
aI6
aI3
aI27
asI654
(lp628
I0
aI0
aI0
aI6
aI34
asI655
(lp629
I2
aI0
aI3
aI6
aI29
asI656
(lp630
I2
aI5
aI8
aI3
aI22
asI657
(lp631
I0
aI0
aI5
aI14
aI21
asI658
(lp632
I1
aI0
aI17
aI8
aI14
asI659
(lp633
I1
aI0
aI3
aI12
aI24
asI660
(lp634
I1
aI8
aI10
aI2
aI19
asI661
(lp635
I7
aI6
aI10
aI3
aI14
asI662
(lp636
I13
aI2
aI2
aI13
aI10
asI663
(lp637
I16
aI0
aI2
aI13
aI9
asI664
(lp638
I5
aI5
aI3
aI10
aI17
asI665
(lp639
I0
aI2
aI14
aI10
aI14
asI666
(lp640
I6
aI5
aI6
aI5
aI18
asI667
(lp641
I8
aI3
aI3
aI5
aI21
asI668
(lp642
I4
aI7
aI9
aI2
aI18
asI669
(lp643
I11
aI0
aI14
aI1
aI14
asI670
g69
sI671
(lp644
I5
aI1
aI3
aI3
aI28
asI672
(lp645
I0
aI3
aI8
aI10
aI19
asI673
(lp646
I7
aI3
aI6
aI0
aI24
asI674
g376
sI675
(lp647
I5
aI1
aI9
aI8
aI17
asI676
(lp648
I4
aI8
aI2
aI4
aI22
asI677
(lp649
I0
aI5
aI15
aI0
aI20
asI678
(lp650
I6
aI4
aI7
aI1
aI22
asI679
(lp651
I0
aI4
aI9
aI2
aI25
asI680
(lp652
I3
aI0
aI13
aI0
aI24
asI681
(lp653
I4
aI5
aI8
aI9
aI14
asI682
g261
sI683
(lp654
I12
aI0
aI10
aI8
aI10
asI684
(lp655
I3
aI5
aI4
aI13
aI15
asI685
(lp656
I4
aI0
aI12
aI15
aI9
asI686
g23
sI687
(lp657
I8
aI8
aI5
aI6
aI13
asI688
(lp658
I3
aI0
aI13
aI10
aI14
asI689
(lp659
I6
aI7
aI16
aI0
aI11
asI690
(lp660
I6
aI0
aI8
aI3
aI23
asI691
(lp661
I3
aI1
aI11
aI7
aI18
asI692
(lp662
I8
aI0
aI9
aI2
aI21
asI693
(lp663
I8
aI9
aI12
aI0
aI11
asI694
(lp664
I2
aI9
aI10
aI6
aI13
asI695
(lp665
I10
aI0
aI6
aI0
aI24
asI696
(lp666
I3
aI7
aI6
aI12
aI12
asI697
(lp667
I0
aI0
aI15
aI7
aI18
asI698
(lp668
I2
aI13
aI3
aI0
aI22
asI699
(lp669
I0
aI4
aI4
aI9
aI23
asI700
(lp670
I0
aI2
aI16
aI11
aI11
asI701
(lp671
I10
aI2
aI9
aI4
aI15
asI702
(lp672
I3
aI0
aI10
aI11
aI16
asI703
(lp673
I2
aI0
aI12
aI4
aI22
asI704
(lp674
I5
aI1
aI7
aI0
aI27
asI705
(lp675
I0
aI16
aI3
aI11
aI10
asI706
(lp676
I5
aI2
aI7
aI6
aI20
asI707
(lp677
I7
aI1
aI7
aI3
aI22
asI708
(lp678
I7
aI0
aI11
aI4
aI18
asI709
(lp679
I0
aI3
aI13
aI1
aI23
asI710
(lp680
I8
aI3
aI5
aI4
aI20
asI711
(lp681
I18
aI4
aI4
aI1
aI13
asI712
(lp682
I5
aI4
aI9
aI10
aI12
asI713
(lp683
I14
aI0
aI0
aI13
aI13
asI714
(lp684
I7
aI0
aI1
aI8
aI24
asI715
(lp685
I13
aI0
aI10
aI4
aI13
asI716
(lp686
I11
aI4
aI2
aI0
aI23
asI717
(lp687
I2
aI4
aI11
aI0
aI23
asI718
(lp688
I6
aI5
aI7
aI2
aI20
asI719
(lp689
I4
aI0
aI10
aI8
aI18
asI720
(lp690
I8
aI1
aI2
aI7
aI22
asI721
(lp691
I4
aI5
aI4
aI6
aI21
asI722
(lp692
I4
aI0
aI12
aI7
aI17
asI723
(lp693
I3
aI0
aI12
aI14
aI11
asI724
g460
sI725
(lp694
I12
aI0
aI7
aI10
aI11
asI726
(lp695
I0
aI1
aI14
aI0
aI25
asI727
(lp696
I3
aI3
aI13
aI7
aI14
asI728
(lp697
I6
aI0
aI7
aI8
aI19
asI729
(lp698
I4
aI3
aI7
aI5
aI21
asI730
(lp699
I0
aI5
aI8
aI3
aI24
asI731
(lp700
I6
aI0
aI11
aI8
aI15
asI732
(lp701
I0
aI7
aI7
aI3
aI23
asI733
g443
sI734
(lp702
I0
aI6
aI20
aI0
aI14
asI735
(lp703
I7
aI0
aI13
aI2
aI18
asI736
(lp704
I8
aI8
aI1
aI0
aI23
asI737
g304
sI738
(lp705
I0
aI8
aI4
aI16
aI12
asI739
(lp706
I3
aI0
aI1
aI14
aI22
asI740
(lp707
I0
aI14
aI12
aI0
aI14
asI741
(lp708
I0
aI2
aI17
aI0
aI21
asI742
(lp709
I4
aI0
aI8
aI0
aI28
asI743
g52
sI744
(lp710
I4
aI4
aI13
aI2
aI17
asI745
(lp711
I0
aI0
aI14
aI15
aI11
asI746
(lp712
I7
aI0
aI15
aI3
aI15
asI747
(lp713
I6
aI0
aI10
aI13
aI11
asI748
g269
sI749
g529
sI750
(lp714
I0
aI0
aI15
aI0
aI25
asI751
(lp715
I2
aI5
aI10
aI0
aI23
asI752
g36
sI753
(lp716
I7
aI0
aI14
aI0
aI19
asI754
(lp717
I1
aI0
aI16
aI0
aI23
asI755
(lp718
I0
aI0
aI10
aI0
aI30
asI756
(lp719
I0
aI12
aI19
aI0
aI9
asI757
(lp720
I2
aI1
aI10
aI11
aI16
asI758
(lp721
I3
aI0
aI13
aI4
aI20
asI759
(lp722
I2
aI0
aI14
aI2
aI22
asI760
(lp723
I0
aI0
aI14
aI16
aI10
asI761
(lp724
I10
aI0
aI1
aI3
aI26
asI762
(lp725
I5
aI0
aI8
aI17
aI10
asI763
(lp726
I10
aI0
aI1
aI5
aI24
asI764
(lp727
I7
aI2
aI5
aI10
aI16
asI765
(lp728
I0
aI3
aI15
aI8
aI14
asI766
(lp729
I0
aI4
aI10
aI4
aI22
asI767
(lp730
I7
aI0
aI9
aI4
aI20
asI768
(lp731
I7
aI7
aI9
aI0
aI17
asI769
(lp732
I1
aI0
aI14
aI12
aI13
asI770
(lp733
I1
aI5
aI11
aI6
aI17
asI771
(lp734
I8
aI4
aI5
aI6
aI17
asI772
(lp735
I8
aI0
aI3
aI10
aI19
asI773
(lp736
I6
aI8
aI4
aI5
aI17
asI774
(lp737
I7
aI2
aI7
aI3
aI21
asI775
(lp738
I1
aI16
aI8
aI0
aI15
asI776
(lp739
I3
aI2
aI4
aI13
aI18
asI777
(lp740
I6
aI2
aI9
aI0
aI23
asI778
(lp741
I10
aI4
aI8
aI0
aI18
asI779
(lp742
I3
aI3
aI5
aI6
aI23
asI780
(lp743
I6
aI5
aI15
aI2
aI12
asI781
(lp744
I7
aI5
aI10
aI2
aI16
asI782
(lp745
I5
aI0
aI2
aI11
aI22
asI783
(lp746
I2
aI0
aI11
aI4
aI23
asI784
(lp747
I7
aI0
aI9
aI15
aI9
asI785
(lp748
I1
aI4
aI2
aI11
aI22
asI786
(lp749
I0
aI5
aI6
aI13
aI16
asI787
(lp750
I0
aI1
aI16
aI4
aI19
asI788
(lp751
I0
aI4
aI11
aI5
aI20
asI789
(lp752
I7
aI0
aI11
aI10
aI12
asI790
(lp753
I0
aI4
aI12
aI4
aI20
asI791
(lp754
I6
aI6
aI1
aI0
aI27
asI792
(lp755
I0
aI18
aI9
aI0
aI13
asI793
(lp756
I7
aI0
aI8
aI2
aI23
asI794
(lp757
I7
aI0
aI4
aI6
aI23
asI795
(lp758
I0
aI11
aI9
aI0
aI20
asI796
(lp759
I0
aI16
aI7
aI2
aI15
asI797
(lp760
I10
aI5
aI13
aI0
aI12
asI798
(lp761
I9
aI1
aI9
aI10
aI11
asI799
(lp762
I2
aI0
aI14
aI3
aI21
asI800
(lp763
I8
aI0
aI6
aI16
aI10
asI801
(lp764
I10
aI0
aI18
aI2
aI10
asI802
(lp765
I0
aI0
aI0
aI16
aI24
asI803
(lp766
I8
aI6
aI7
aI0
aI19
asI804
(lp767
I0
aI0
aI16
aI13
aI11
asI805
(lp768
I8
aI5
aI11
aI5
aI11
asI806
(lp769
I0
aI6
aI14
aI1
aI19
asI807
(lp770
I14
aI8
aI8
aI0
aI10
asI808
(lp771
I5
aI2
aI11
aI0
aI22
asI809
(lp772
I9
aI0
aI1
aI9
aI21
asI810
g531
sI811
(lp773
I2
aI0
aI11
aI5
aI22
asI812
(lp774
I0
aI0
aI8
aI14
aI18
asI813
(lp775
I5
aI0
aI5
aI12
aI18
asI814
(lp776
I1
aI8
aI16
aI0
aI15
asI815
(lp777
I8
aI0
aI12
aI1
aI19
asI816
(lp778
I2
aI13
aI5
aI0
aI20
asI817
(lp779
I0
aI0
aI7
aI16
aI17
asI818
(lp780
I14
aI1
aI0
aI2
aI23
asI819
(lp781
I0
aI2
aI14
aI9
aI15
asI820
(lp782
I0
aI6
aI13
aI8
aI13
asI821
(lp783
I8
aI1
aI9
aI8
aI14
asI822
(lp784
I0
aI1
aI15
aI3
aI21
asI823
(lp785
I5
aI0
aI11
aI7
aI17
asI824
g102
sI825
(lp786
I3
aI4
aI3
aI0
aI30
asI826
(lp787
I8
aI1
aI11
aI7
aI13
asI827
(lp788
I12
aI3
aI2
aI11
aI12
asI828
(lp789
I6
aI0
aI16
aI0
aI18
asI829
(lp790
I6
aI1
aI12
aI3
aI18
asI830
(lp791
I9
aI0
aI3
aI12
aI16
asI831
(lp792
I1
aI6
aI11
aI5
aI17
asI832
(lp793
I6
aI5
aI3
aI4
aI22
asI833
(lp794
I10
aI0
aI7
aI4
aI19
asI834
(lp795
I9
aI7
aI13
aI0
aI11
asI835
(lp796
I10
aI0
aI0
aI22
aI8
asI836
(lp797
I9
aI8
aI1
aI3
aI19
asI837
(lp798
I2
aI3
aI7
aI9
aI19
asI838
(lp799
I8
aI10
aI1
aI5
aI16
asI839
(lp800
I10
aI0
aI7
aI10
aI13
asI840
(lp801
I0
aI3
aI12
aI3
aI22
asI841
(lp802
I5
aI0
aI10
aI5
aI20
asI842
(lp803
I2
aI0
aI7
aI19
aI12
asI843
(lp804
I2
aI0
aI9
aI4
aI25
asI844
g531
sI845
(lp805
I1
aI0
aI9
aI10
aI20
asI846
(lp806
I5
aI0
aI6
aI11
aI18
asI847
(lp807
I2
aI0
aI1
aI25
aI12
asI848
(lp808
I6
aI0
aI12
aI5
aI17
asI849
(lp809
I7
aI4
aI2
aI6
aI21
asI850
(lp810
I6
aI0
aI9
aI15
aI10
asI851
(lp811
I5
aI2
aI10
aI3
aI20
asI852
(lp812
I0
aI0
aI10
aI8
aI22
asI853
(lp813
I4
aI1
aI7
aI7
aI21
asI854
(lp814
I0
aI0
aI19
aI0
aI21
asI855
(lp815
I0
aI2
aI9
aI2
aI27
asI856
(lp816
I0
aI2
aI7
aI11
aI20
asI857
(lp817
I0
aI6
aI9
aI3
aI22
asI858
(lp818
I1
aI7
aI13
aI7
aI12
asI859
(lp819
I5
aI3
aI10
aI9
aI13
asI860
(lp820
I9
aI0
aI12
aI3
aI16
asI861
(lp821
I3
aI0
aI9
aI6
aI22
asI862
(lp822
I3
aI3
aI6
aI13
aI15
asI863
(lp823
I0
aI2
aI5
aI4
aI29
asI864
(lp824
I6
aI0
aI5
aI20
aI9
asI865
(lp825
I10
aI0
aI5
aI17
aI8
asI866
(lp826
I12
aI0
aI0
aI2
aI26
asI867
(lp827
I11
aI0
aI12
aI0
aI17
asI868
(lp828
I9
aI4
aI5
aI10
aI12
asI869
(lp829
I7
aI0
aI12
aI6
aI15
asI870
(lp830
I1
aI10
aI4
aI0
aI25
asI871
(lp831
I10
aI4
aI13
aI0
aI13
asI872
(lp832
I0
aI0
aI16
aI8
aI16
asI873
g196
sI874
(lp833
I2
aI4
aI9
aI4
aI21
asI875
(lp834
I0
aI0
aI7
aI12
aI21
asI876
(lp835
I4
aI4
aI5
aI14
aI13
asI877
(lp836
I0
aI2
aI9
aI6
aI23
asI878
(lp837
I9
aI4
aI12
aI1
aI14
asI879
(lp838
I8
aI0
aI4
aI6
aI22
asI880
(lp839
I10
aI0
aI15
aI3
aI12
asI881
(lp840
I3
aI2
aI11
aI5
aI19
asI882
(lp841
I9
aI3
aI8
aI10
aI10
asI883
g73
sI884
(lp842
I0
aI16
aI6
aI8
aI10
asI885
(lp843
I7
aI4
aI7
aI3
aI19
asI886
(lp844
I5
aI0
aI6
aI15
aI14
asI887
(lp845
I3
aI2
aI10
aI8
aI17
asI888
(lp846
I3
aI6
aI13
aI0
aI18
asI889
(lp847
I7
aI2
aI11
aI0
aI20
asI890
(lp848
I0
aI3
aI13
aI9
aI15
asI891
(lp849
I17
aI1
aI10
aI1
aI11
asI892
(lp850
I11
aI0
aI6
aI15
aI8
asI893
(lp851
I14
aI7
aI4
aI0
aI15
asI894
(lp852
I1
aI1
aI10
aI6
aI22
asI895
(lp853
I5
aI2
aI6
aI8
aI19
asI896
(lp854
I5
aI0
aI15
aI1
aI19
asI897
(lp855
I2
aI1
aI7
aI11
aI19
asI898
(lp856
I6
aI1
aI11
aI7
aI15
asI899
(lp857
I0
aI0
aI16
aI9
aI15
asI900
(lp858
I13
aI0
aI0
aI21
aI6
asI901
(lp859
I1
aI0
aI5
aI10
aI24
asI902
(lp860
I11
aI13
aI4
aI0
aI12
asI903
(lp861
I7
aI0
aI11
aI9
aI13
asI904
(lp862
I12
aI2
aI2
aI6
aI18
asI905
(lp863
I1
aI4
aI7
aI12
aI16
asI906
g210
sI907
(lp864
I3
aI10
aI4
aI2
aI21
asI908
(lp865
I6
aI0
aI0
aI7
aI27
asI909
(lp866
I8
aI6
aI1
aI4
aI21
asI910
(lp867
I6
aI0
aI11
aI10
aI13
asI911
(lp868
I3
aI3
aI3
aI10
aI21
asI912
(lp869
I2
aI7
aI7
aI2
aI22
asI913
(lp870
I2
aI3
aI10
aI14
aI11
asI914
(lp871
I7
aI5
aI9
aI0
aI19
asI915
(lp872
I14
aI8
aI4
aI4
aI10
asI916
(lp873
I4
aI0
aI4
aI7
aI25
asI917
(lp874
I0
aI11
aI15
aI2
aI12
asI918
(lp875
I6
aI0
aI8
aI0
aI26
asI919
(lp876
I2
aI1
aI12
aI11
aI14
asI920
(lp877
I11
aI0
aI3
aI3
aI23
asI921
(lp878
I9
aI6
aI11
aI2
aI12
asI922
(lp879
I5
aI1
aI8
aI14
aI12
asI923
(lp880
I7
aI4
aI11
aI0
aI18
asI924
(lp881
I14
aI0
aI3
aI18
aI5
asI925
(lp882
I5
aI0
aI12
aI8
aI15
asI926
(lp883
I4
aI0
aI6
aI0
aI30
asI927
(lp884
I7
aI2
aI11
aI5
aI15
asI928
(lp885
I3
aI0
aI7
aI9
aI21
asI929
(lp886
I1
aI8
aI13
aI0
aI18
asI930
(lp887
I1
aI0
aI10
aI9
aI20
asI931
(lp888
I3
aI5
aI3
aI8
aI21
asI932
(lp889
I5
aI0
aI11
aI5
aI19
asI933
(lp890
I4
aI0
aI16
aI3
aI17
asI934
(lp891
I5
aI0
aI13
aI9
aI13
asI935
(lp892
I0
aI0
aI14
aI3
aI23
asI936
(lp893
I2
aI0
aI12
aI3
aI23
asI937
(lp894
I4
aI6
aI12
aI3
aI15
asI938
g52
sI939
(lp895
I6
aI5
aI11
aI3
aI15
asI940
(lp896
I5
aI1
aI2
aI5
aI27
asI941
(lp897
I9
aI0
aI5
aI7
aI19
asI942
(lp898
I6
aI1
aI7
aI6
aI20
asI943
(lp899
I4
aI3
aI14
aI3
aI16
asI944
(lp900
I0
aI2
aI10
aI11
aI17
asI945
(lp901
I8
aI1
aI4
aI10
aI17
asI946
(lp902
I5
aI0
aI7
aI5
aI23
asI947
(lp903
I2
aI0
aI7
aI8
aI23
asI948
(lp904
I8
aI5
aI4
aI0
aI23
asI949
(lp905
I7
aI10
aI8
aI0
aI15
asI950
(lp906
I1
aI3
aI13
aI6
aI17
asI951
(lp907
I0
aI7
aI6
aI8
aI19
asI952
(lp908
I0
aI10
aI4
aI6
aI20
asI953
g532
sI954
(lp909
I0
aI1
aI16
aI0
aI23
asI955
(lp910
I11
aI4
aI1
aI3
aI21
asI956
(lp911
I0
aI0
aI24
aI1
aI15
asI957
(lp912
I8
aI0
aI15
aI6
aI11
asI958
(lp913
I0
aI0
aI4
aI15
aI21
asI959
g889
sI960
(lp914
I7
aI0
aI3
aI11
aI19
asI961
g856
sI962
g542
sI963
(lp915
I2
aI5
aI5
aI3
aI25
asI964
(lp916
I5
aI1
aI13
aI3
aI18
asI965
(lp917
I7
aI8
aI0
aI5
aI20
asI966
(lp918
I3
aI0
aI7
aI6
aI24
asI967
(lp919
I7
aI4
aI5
aI4
aI20
asI968
(lp920
I1
aI24
aI3
aI0
aI12
asI969
(lp921
I0
aI0
aI12
aI5
aI23
asI970
(lp922
I0
aI1
aI11
aI6
aI22
asI971
g921
sI972
(lp923
I2
aI12
aI3
aI9
aI14
asI973
(lp924
I1
aI0
aI14
aI4
aI21
asI974
(lp925
I2
aI6
aI12
aI0
aI20
asI975
(lp926
I4
aI6
aI9
aI0
aI21
asI976
(lp927
I0
aI12
aI0
aI0
aI28
asI977
(lp928
I10
aI3
aI4
aI0
aI23
asI978
(lp929
I5
aI0
aI12
aI5
aI18
asI979
(lp930
I5
aI0
aI6
aI9
aI20
asI980
(lp931
I11
aI0
aI14
aI3
aI12
asI981
(lp932
I10
aI0
aI9
aI8
aI13
asI982
(lp933
I6
aI5
aI16
aI0
aI13
asI983
(lp934
I2
aI4
aI8
aI5
aI21
asI984
(lp935
I12
aI0
aI3
aI7
aI18
asI985
(lp936
I6
aI0
aI1
aI11
aI22
asI986
g73
sI987
(lp937
I6
aI6
aI5
aI5
aI18
asI988
g179
sI989
(lp938
I4
aI0
aI14
aI9
aI13
asI990
(lp939
I4
aI0
aI9
aI10
aI17
asI991
(lp940
I9
aI0
aI0
aI0
aI31
asI992
g697
sI993
(lp941
I12
aI7
aI1
aI7
aI13
asI994
(lp942
I2
aI0
aI11
aI1
aI26
asI995
(lp943
I2
aI2
aI13
aI10
aI13
asI996
(lp944
I3
aI0
aI11
aI9
aI17
asI997
(lp945
I11
aI0
aI5
aI0
aI24
asI998
(lp946
I1
aI2
aI12
aI1
aI24
asI999
(lp947
I4
aI2
aI10
aI4
aI20
as.