(dp0
I0
(lp1
F0.28770677911125525
aF0.18196561790463833
aF0.14693480376256893
aF0.20986052546221212
aF0.17353227375932534
asI1
(lp2
F0.41323716588884174
aF0.027153160797624098
aF0.24522698345354263
aF0.06745863385659737
aF0.24692405600339415
asI2
(lp3
F0.0745793542519327
aF0.058663028649386086
aF0.25738972260118237
aF0.22874033651659845
aF0.3806275579809004
asI3
(lp4
F0.11047102677058625
aF0.1267366994239241
aF0.2890545577770247
aF0.25177905794645883
aF0.2219586580820061
asI4
(lp5
F0.24719701014415377
aF0.24719701014415377
aF0.3182060864922584
aF0.1575013347570742
aF0.02989855846235985
asI5
(lp6
F0.10146604938271606
aF0.27469135802469136
aF0.0470679012345679
aF0.30516975308641975
aF0.2716049382716049
asI6
(lp7
F0.21875
aF0.24573863636363635
aF0.23650568181818182
aF0.07599431818181818
aF0.22301136363636365
asI7
(lp8
F0.18016759776536312
aF0.3414804469273743
aF0.04574022346368715
aF0.33868715083798884
aF0.0939245810055866
asI8
(lp9
F0.1436186892442772
aF0.3013483850736908
aF0.2602696770147382
aF0.028222013170272814
aF0.266541235497021
asI9
(lp10
F0.22289803220035778
aF0.10912343470483005
aF0.22683363148479427
aF0.15670840787119858
aF0.2844364937388193
asI10
(lp11
F0.013636363636363636
aF0.2663101604278075
aF0.2109625668449198
aF0.2671122994652406
aF0.24197860962566844
asI11
(lp12
F0.020693852708460133
aF0.30432136335970783
aF0.09007912355447352
aF0.34266585514303105
aF0.24223980523432745
asI12
(lp13
F0.01316298877274487
aF0.21138211382113822
aF0.28339140534262486
aF0.3732094463801781
aF0.11885404568331398
asI13
(lp14
F0.10135338345864661
aF0.1861654135338346
aF0.23007518796992482
aF0.2018045112781955
aF0.2806015037593985
asI14
(lp15
F0.24347454000855798
aF0.044073598630723146
aF0.4249037227214377
aF0.15832263585793752
aF0.1292255027813436
asI15
(lp16
F0.0936374549819928
aF0.22749099639855944
aF0.2064825930372149
aF0.13925570228091236
aF0.33313325330132054
asI16
(lp17
F0.3130597014925373
aF0.007835820895522387
aF0.34888059701492535
aF0.1832089552238806
aF0.14701492537313432
asI17
(lp18
F0.3525618058043712
aF0.07452525976352561
aF0.2869939089931924
aF0.24328197778573987
aF0.042637047653170904
asI18
(lp19
F0.2191185599006828
aF0.1452513966480447
aF0.04283054003724395
aF0.45251396648044695
aF0.14028553693358162
asI19
(lp20
F0.3540633346051126
aF0.19305608546356354
aF0.3761922930179321
aF0.013735215566577643
aF0.06295307134681419
asI20
(lp21
F0.0076726342710997444
aF0.3317500913408842
aF0.07088052612349288
aF0.2630617464377055
aF0.3266350018268177
asI21
(lp22
F0.12717391304347825
aF0.2782608695652174
aF0.2842391304347826
aF0.14565217391304347
aF0.16467391304347825
asI22
(lp23
F0.024438312968072525
aF0.005124162396531336
aF0.24595979503350412
aF0.33701221915648405
aF0.38746551044540795
asI23
(lp24
F0.4082238236540907
aF0.010173802458668928
aF0.13522679101314117
aF0.4120389995760916
aF0.03433658329800763
asI24
(lp25
F0.05764866091693146
aF0.01270994098955969
aF0.21107580571947346
aF0.4212437585111212
aF0.2973218338629142
asI25
(lp26
F0.3217881594844946
aF0.13894482480869916
aF0.12847362062021747
aF0.03544099879178413
aF0.37535239629480466
asI26
(lp27
F0.2438949938949939
aF0.2777777777777778
aF0.1346153846153846
aF0.17826617826617827
aF0.16544566544566544
asI27
(lp28
F0.30054151624548736
aF0.0058664259927797835
aF0.15613718411552346
aF0.38267148014440433
aF0.15478339350180506
asI28
(lp29
F0.27566964285714285
aF0.08565848214285714
aF0.13588169642857142
aF0.27260044642857145
aF0.23018973214285715
asI29
(lp30
F0.2057797708021923
aF0.2974588938714499
aF0.009466865969108122
aF0.3577478824115595
aF0.12954658694569007
asI30
(lp31
F0.302367941712204
aF0.6238615664845173
aF0.025500910746812388
aF0.020036429872495445
aF0.028233151183970857
asI31
(lp32
F0.3125884016973126
aF0.04667609618104668
aF0.04950495049504951
aF0.034653465346534656
aF0.5565770862800565
asI32
(lp33
F0.28119687181230874
aF0.19789187351241075
aF0.16218973138388304
aF0.11186671200272016
aF0.2468548112886773
asI33
(lp34
F0.3250539956803456
aF0.13714902807775378
aF0.1259899208063355
aF0.31317494600431967
aF0.09863210943124551
asI34
(lp35
F0.12333447215579091
aF0.15510761872224121
aF0.31978134608814485
aF0.08711991800478305
aF0.31465664502903995
asI35
(lp36
F0.20184544405997693
aF0.09803921568627451
aF0.33871587850826607
aF0.3156478277585544
aF0.0457516339869281
asI36
(lp37
F0.32433734939759035
aF0.1493975903614458
aF0.21734939759036145
aF0.015421686746987951
aF0.2934939759036145
asI37
(lp38
F0.1503267973856209
aF0.06405228758169934
aF0.4235294117647059
aF0.008278867102396514
aF0.35381263616557734
asI38
(lp39
F0.21407363420427553
aF0.2856294536817102
aF0.08046318289786224
aF0.21407363420427553
aF0.20576009501187648
asI39
(lp40
F0.2728476821192053
aF0.2790286975717439
aF0.18896247240618103
aF0.1880794701986755
aF0.07108167770419425
asI40
(lp41
F0.4087085601187531
aF0.33943592281048984
aF0.0019792182088075212
aF0.12221672439386443
aF0.1276595744680851
asI41
(lp42
F0.2971037060105886
aF0.2650264715042043
aF0.24602927436935534
aF0.047337278106508875
aF0.14450327000934288
asI42
(lp43
F0.16559565002471577
aF0.11962432031636185
aF0.4681166584280771
aF0.10627780523974295
aF0.14038556599110233
asI43
(lp44
F0.1761706073249884
aF0.04821511358368104
aF0.15901715345387113
aF0.27491886879925825
aF0.3416782568382012
asI44
(lp45
F0.026090342679127725
aF0.3212616822429907
aF0.24610591900311526
aF0.16277258566978192
aF0.24376947040498442
asI45
(lp46
F0.3801143862736472
aF0.09018917729872415
aF0.2089749230092389
aF0.014958205015398152
aF0.30576330840299165
asI46
(lp47
F0.15527638190954773
aF0.4648241206030151
aF0.33819095477386935
aF0.030653266331658293
aF0.011055276381909548
asI47
(lp48
F0.27624309392265195
aF0.2261247040252565
aF0.02367797947908445
aF0.22375690607734808
aF0.250197316495659
asI48
(lp49
F0.05542168674698795
aF0.023293172690763052
aF0.008835341365461847
aF0.7823293172690763
aF0.13012048192771083
asI49
(lp50
F0.30824544582933844
aF0.3581016299137105
aF0.10210930009587728
aF0.14813039309683604
aF0.08341323106423777
asI50
(lp51
F0.13089560148383678
aF0.05829358770535241
aF0.505564387917329
aF0.2766295707472178
aF0.028616852146263912
asI51
(lp52
F0.20190779014308427
aF0.10757816640169582
aF0.19395866454689983
aF0.27239003709591947
aF0.22416534181240064
asI52
(lp53
F0.33286018452803406
aF0.08977998580553584
aF0.22391767210787794
aF0.12916962384669978
aF0.22427253371185238
asI53
(lp54
F0.21635012386457472
aF0.22791081750619324
aF0.28075970272502065
aF0.09661436829066887
aF0.17836498761354252
asI54
(lp55
F0.28949919224555737
aF0.05718901453957997
aF0.1825525040387722
aF0.19709208400646203
aF0.27366720516962845
asI55
(lp56
F0.08437705998681608
aF0.1875411997363217
aF0.10678971654581411
aF0.3206987475280158
aF0.3005932762030323
asI56
(lp57
F0.2895238095238095
aF0.16063492063492063
aF0.06603174603174604
aF0.43047619047619046
aF0.05333333333333334
asI57
(lp58
F0.33953142432130906
aF0.14243213090368168
aF0.22238750464856824
aF0.24879137225734474
aF0.04685756786909632
asI58
(lp59
F0.2575024201355276
aF0.3020329138431752
aF0.06679574056147145
aF0.15682478218780252
aF0.21684414327202323
asI59
(lp60
F0.24554102259215219
aF0.1789536266349584
aF0.18608799048751487
aF0.08680142687277051
aF0.30261593341260407
asI60
(lp61
F0.036775106082036775
aF0.14992927864214992
aF0.17303158887317302
aF0.3635077793493635
aF0.2767562470532768
asI61
(lp62
F0.19710806697108066
aF0.3748097412480974
aF0.13470319634703196
aF0.033866057838660577
aF0.2595129375951294
asI62
(lp63
F0.16897891231964485
aF0.2413984461709212
aF0.19173140954495005
aF0.2358490566037736
aF0.16204217536071033
asI63
(lp64
F0.015586546349466776
aF0.15340442986054142
aF0.22641509433962265
aF0.26579163248564397
aF0.3388022969647252
asI64
(lp65
F0.06715506715506715
aF0.16809116809116809
aF0.3325193325193325
aF0.2771672771672772
aF0.15506715506715507
asI65
(lp66
F0.12432432432432433
aF0.316988416988417
aF0.20077220077220076
aF0.19536679536679535
aF0.16254826254826255
asI66
(lp67
F0.02719155844155844
aF0.3628246753246753
aF0.2077922077922078
aF0.037743506493506496
aF0.36444805194805197
asI67
(lp68
F0.2848994296007205
aF0.25637946562593816
aF0.0978685079555689
aF0.25758030621435
aF0.1032722906034224
asI68
(lp69
F0.39196857267568747
aF0.06809253601047577
aF0.08249672632038411
aF0.3505019642077695
aF0.1069402007856831
asI69
(lp70
F0.049202578893790296
aF0.3145571767899559
aF0.2609433322022396
aF0.12724804886325075
aF0.2480488632507635
asI70
(lp71
F0.20260162601626017
aF0.10276422764227643
aF0.19317073170731708
aF0.2975609756097561
aF0.20390243902439023
asI71
(lp72
F0.33682092555331994
aF0.013279678068410463
aF0.3810865191146881
aF0.08249496981891348
aF0.186317907444668
asI72
(lp73
F0.048836322014498286
aF0.13239221671117893
aF0.2636398321251431
aF0.2769935139259824
aF0.27813811522319726
asI73
(lp74
F0.13702042850024912
aF0.13801694070752366
aF0.2306925759840558
aF0.1933233682112606
aF0.3009466865969108
asI74
(lp75
F0.10896551724137932
aF0.2386206896551724
aF0.15379310344827588
aF0.16620689655172413
aF0.33241379310344826
asI75
(lp76
F0.13822975517890773
aF0.11337099811676082
aF0.2120527306967985
aF0.35329566854990585
aF0.18305084745762712
asI76
(lp77
F0.37512487512487513
aF0.01048951048951049
aF0.2202797202797203
aF0.1983016983016983
aF0.1958041958041958
asI77
(lp78
F0.27324545778411113
aF0.07196294976843605
aF0.28856430352689705
aF0.053794086213038834
aF0.3124332027075169
asI78
(lp79
F0.2268349385586184
aF0.06376619063434075
aF0.16472932580538027
aF0.3191630687479243
aF0.2255064762537363
asI79
(lp80
F0.36818352764197065
aF0.2564874012786762
aF0.024445280180518992
aF0.3068822865739
aF0.04400150432493419
asI80
(lp81
F0.5134155184916607
aF0.15736040609137056
aF0.06091370558375635
aF0.044960116026105876
aF0.2233502538071066
asI81
(lp82
F0.3216114714919768
aF0.20416524411061795
aF0.1293956981905087
aF0.3246841925571868
aF0.0201433936497098
asI82
(lp83
F0.06405228758169934
aF0.22287581699346407
aF0.15359477124183007
aF0.503921568627451
aF0.05555555555555555
asI83
(lp84
F0.4986301369863014
aF0.028493150684931506
aF0.19232876712328767
aF0.1747945205479452
aF0.10575342465753425
asI84
(lp85
F0.21529324424647364
aF0.043429844097995544
aF0.2973273942093541
aF0.33853006681514475
aF0.10541945063103192
asI85
(lp86
F0.21495934959349594
aF0.2865040650406504
aF0.30796747967479676
aF0.12130081300813009
aF0.06926829268292684
asI86
(lp87
F0.01466275659824047
aF0.0967741935483871
aF0.23988269794721406
aF0.5378299120234604
aF0.11085043988269795
asI87
(lp88
F0.3451581975071908
aF0.12272291466922339
aF0.14621284755512942
aF0.29913710450623204
aF0.08676893576222436
asI88
(lp89
F0.2601446995910664
aF0.13431896822900283
aF0.2698961937716263
aF0.2025794274929223
aF0.13306071091538219
asI89
(lp90
F0.07067334446299388
aF0.12799109627156371
aF0.4969393433500278
aF0.022259321090706732
aF0.28213689482470783
asI90
(lp91
F0.3347427766032417
aF0.29245947850599013
aF0.11064129668780831
aF0.22233967582804792
aF0.03981677237491191
asI91
(lp92
F0.5147783251231527
aF0.07758620689655173
aF0.09975369458128079
aF0.0874384236453202
aF0.2204433497536946
asI92
(lp93
F0.2661664880314398
aF0.20864594498035013
aF0.05501964987495534
aF0.3408360128617363
aF0.1293319042515184
asI93
(lp94
F0.0016139444803098773
aF0.30858618463524856
aF0.3037443511943189
aF0.12588766946417043
aF0.26016785022595224
asI94
(lp95
F0.28523809523809524
aF0.04380952380952381
aF0.07142857142857142
aF0.23476190476190475
aF0.3647619047619048
asI95
(lp96
F0.10252302763315979
aF0.3592310772927513
aF0.043652382859431314
aF0.13215859030837004
aF0.36243492190628757
asI96
(lp97
F0.18523316062176165
aF0.19775474956822106
aF0.07340241796200346
aF0.11226252158894647
aF0.43134715025906734
asI97
(lp98
F0.15736810187992722
aF0.16343238326258339
aF0.28320194057004244
aF0.28805336567616735
aF0.10794420861127957
asI98
(lp99
F0.3139083139083139
aF0.3282828282828283
aF0.07459207459207459
aF0.13364413364413363
aF0.14957264957264957
asI99
(lp100
F0.07200538358008075
aF0.23418573351278602
aF0.014131897711978465
aF0.43405114401076716
aF0.24562584118438763
asI100
(lp101
F0.38461538461538464
aF0.37041420118343193
aF0.1739644970414201
aF0.05207100591715976
aF0.01893491124260355
asI101
(lp102
F0.06683066830668306
aF0.056990569905699055
aF0.23083230832308324
aF0.25174251742517423
aF0.3936039360393604
asI102
(lp103
F0.33274647887323944
aF0.1658450704225352
aF0.09683098591549295
aF0.27605633802816903
aF0.12852112676056338
asI103
(lp104
F0.2943194815097217
aF0.031643156690812045
aF0.14830346930995045
aF0.35608082348455966
aF0.16965306900495616
asI104
(lp105
F0.03760614638091387
aF0.2066316215123332
aF0.3716134249898908
aF0.376870198139911
aF0.007278608976951072
asI105
(lp106
F0.21872816212438853
aF0.3382250174703005
aF0.34102026554856746
aF0.05520614954577219
aF0.04682040531097135
asI106
(lp107
F0.2474025974025974
aF0.09285714285714286
aF0.048701298701298704
aF0.37597402597402596
aF0.23506493506493506
asI107
(lp108
F0.0838810641627543
aF0.31205007824726133
aF0.17089201877934274
aF0.2516431924882629
aF0.18153364632237873
asI108
(lp109
F0.3363028953229399
aF0.11284335560504825
aF0.21752041573867856
aF0.17706013363028952
aF0.1562731997030438
asI109
(lp110
F0.3263310394784498
aF0.05070626584570807
aF0.29119884099963783
aF0.32814197754436797
aF0.003621876131836291
asI110
(lp111
F0.08584474885844749
aF0.25844748858447486
aF0.16757990867579908
aF0.3954337899543379
aF0.09269406392694064
asI111
(lp112
F0.14240506329113925
aF0.10759493670886076
aF0.16772151898734178
aF0.3041139240506329
aF0.2781645569620253
asI112
(lp113
F0.3096273291925466
aF0.02546583850931677
aF0.23198757763975156
aF0.21304347826086956
aF0.21987577639751552
asI113
(lp114
F0.1333912037037037
aF0.1892361111111111
aF0.2103587962962963
aF0.2829861111111111
aF0.1840277777777778
asI114
(lp115
F0.07541100786275912
aF0.35632594710507504
aF0.3320228734810579
aF0.15511079342387418
aF0.08112937812723374
asI115
(lp116
F0.07557755775577557
aF0.22574257425742575
aF0.12673267326732673
aF0.28052805280528054
aF0.29141914191419144
asI116
(lp117
F0.1684981684981685
aF0.05311355311355311
aF0.07997557997557997
aF0.3498168498168498
aF0.3485958485958486
asI117
(lp118
F0.158953722334004
aF0.22535211267605634
aF0.26243173325668295
aF0.19028456453003736
aF0.16297786720321933
asI118
(lp119
F0.25207100591715975
aF0.292603550295858
aF0.10295857988165681
aF0.1881656804733728
aF0.16420118343195267
asI119
(lp120
F0.2292134831460674
aF0.18801498127340824
aF0.33220973782771535
aF0.17827715355805243
aF0.07228464419475655
asI120
(lp121
F0.227123695976155
aF0.19672131147540983
aF0.15052160953800298
aF0.22384500745156483
aF0.20178837555886736
asI121
(lp122
F0.15055329062317996
aF0.27577169481654046
aF0.10396039603960396
aF0.20675596971461851
aF0.26295864880605707
asI122
(lp123
F0.44223107569721115
aF0.16733067729083664
aF0.20717131474103587
aF0.08067729083665338
aF0.10258964143426295
asI123
(lp124
F0.2752411575562701
aF0.43729903536977494
aF0.21864951768488747
aF0.03987138263665595
aF0.028938906752411574
asI124
(lp125
F0.2849887133182844
aF0.34085778781038373
aF0.0
aF0.2849887133182844
aF0.08916478555304741
asI125
(lp126
F0.2580213903743315
aF0.12834224598930483
aF0.48128342245989303
aF0.0875668449197861
aF0.04478609625668449
asI126
(lp127
F0.12109623964308477
aF0.22020395156150413
aF0.036010197578075206
aF0.30465264499681327
aF0.31803696622052263
asI127
(lp128
F0.011327879169288861
aF0.4487098804279421
aF0.3750786658275645
aF0.005663939584644431
aF0.1592196349905601
asI128
(lp129
F0.33898891966759004
aF0.2918975069252078
aF0.21087257617728533
aF0.037742382271468145
aF0.12049861495844875
asI129
(lp130
F0.09785286870820134
aF0.26610348468849
aF0.13199577613516367
aF0.293558606124604
aF0.210489264343541
asI130
(lp131
F0.2298253893345918
aF0.08069844266163284
aF0.2345445965077867
aF0.4549315714959887
aF0.0
asI131
(lp132
F0.10900216919739697
aF0.061279826464208244
aF0.08134490238611713
aF0.46475054229934926
aF0.28362255965292843
asI132
(lp133
F0.4102449888641425
aF0.3305122494432071
aF0.040979955456570155
aF0.20534521158129176
aF0.012917594654788419
asI133
(lp134
F0.18371837183718373
aF0.19746974697469746
aF0.264026402640264
aF0.3261826182618262
aF0.028602860286028604
asI134
(lp135
F0.31197771587743733
aF0.09152407481098289
aF0.17469160366096298
aF0.2518901711102268
aF0.16991643454038996
asI135
(lp136
F0.10726122326001808
aF0.2823139499849352
aF0.2606206688761675
aF0.17505272672491715
aF0.17475143115396205
asI136
(lp137
F0.24496402877697843
aF0.160431654676259
aF0.003956834532374101
aF0.29028776978417264
aF0.30035971223021585
asI137
(lp138
F0.031106398020501944
aF0.2014846235418876
aF0.2598091198303287
aF0.3343937787203959
aF0.17320607988688583
asI138
(lp139
F0.4520681265206813
aF0.16642335766423358
aF0.04525547445255475
aF0.11386861313868613
aF0.22238442822384427
asI139
(lp140
F0.20225720225720226
aF0.06652806652806653
aF0.16156816156816156
aF0.2961092961092961
aF0.27353727353727353
asI140
(lp141
F0.16771488469601678
aF0.1148846960167715
aF0.08721174004192872
aF0.40125786163522015
aF0.2289308176100629
asI141
(lp142
F0.11339846475924634
aF0.2847173761339846
aF0.31053733426378227
aF0.00418702023726448
aF0.28715980460572227
asI142
(lp143
F0.027393044013542627
aF0.21945213911972913
aF0.29085872576177285
aF0.2154509079716836
aF0.24684518313327178
asI143
(lp144
F0.2832579185520362
aF0.2072398190045249
aF0.17677224736048266
aF0.2567119155354449
aF0.0760180995475113
asI144
(lp145
F0.2936241610738255
aF0.22203579418344518
aF0.06431767337807606
aF0.18120805369127516
aF0.23881431767337807
asI145
(lp146
F0.21608643457382953
aF0.11484593837535013
aF0.04881952781112445
aF0.274109643857543
aF0.3461384553821529
asI146
(lp147
F0.21074043938161108
aF0.3596419853539463
aF0.36493083807973964
aF0.030919446704637917
aF0.03376729048006509
asI147
(lp148
F0.19249201277955272
aF0.19568690095846644
aF0.18956336528221512
aF0.2539936102236422
aF0.16826411075612355
asI148
(lp149
F0.17847336628226249
aF0.008237232289950576
aF0.23613399231191654
aF0.4733662822624931
aF0.10378912685337727
asI149
(lp150
F0.1867359413202934
aF0.29125916870415647
aF0.09963325183374083
aF0.24572127139364303
aF0.17665036674816625
asI150
(lp151
F0.2170145726664041
aF0.027569909413154785
aF0.20874359984245766
aF0.3154785348562426
aF0.23119338322174085
asI151
(lp152
F0.1204644412191582
aF0.4073536526366715
aF0.3478471214320271
aF0.09579100145137881
aF0.028543783260764392
asI152
(lp153
F0.12578616352201258
aF0.03852201257861635
aF0.14229559748427673
aF0.3639937106918239
aF0.32940251572327045
asI153
(lp154
F0.39653085921742637
aF0.04195240016135539
aF0.2392093586123437
aF0.09842678499394918
aF0.22388059701492538
asI154
(lp155
F0.2985122897800776
aF0.18758085381630013
aF0.20310478654592498
aF0.08570504527813713
aF0.22509702457956016
asI155
(lp156
F0.02065154159394997
aF0.20477021524141942
aF0.289412449098313
aF0.20331588132635253
aF0.28184991273996507
asI156
(lp157
F0.26896311760612385
aF0.2588726513569937
aF0.023312456506610995
aF0.13987473903966596
aF0.3089770354906054
asI157
(lp158
F0.3279313632030505
aF0.04051477597712107
aF0.18255481410867494
aF0.3603431839847474
aF0.0886558627264061
asI158
(lp159
F0.07678729037952339
aF0.19593998234774934
aF0.26654898499558694
aF0.42850838481906445
aF0.032215357458075904
asI159
(lp160
F0.1509916826615483
aF0.2751119641714651
aF0.09596928982725528
aF0.30710172744721687
aF0.1708253358925144
asI160
(lp161
F0.35201328352013284
aF0.0684931506849315
aF0.16687422166874222
aF0.3848069738480697
aF0.027812370278123704
asI161
(lp162
F0.33103975535168195
aF0.0194954128440367
aF0.30466360856269115
aF0.005351681957186544
aF0.3394495412844037
asI162
(lp163
F0.16106604866743918
aF0.2406334492081885
aF0.20587099266125916
aF0.07300115874855156
aF0.3194283507145616
asI163
(lp164
F0.28384
aF0.26368
aF0.03488
aF0.15616
aF0.26144
asI164
(lp165
F0.22087067861715748
aF0.25512163892445583
aF0.2119078104993598
aF0.01120358514724712
aF0.30089628681177977
asI165
(lp166
F0.44143426294820715
aF0.0653386454183267
aF0.18087649402390438
aF0.07410358565737052
aF0.23824701195219122
asI166
(lp167
F0.2279727341580409
aF0.1893461247159808
aF0.1893461247159808
aF0.25246149962130776
aF0.14087351678868973
asI167
(lp168
F0.25788168614948637
aF0.153028692879915
aF0.2635494155154091
aF0.24194119730782856
aF0.08359900814736096
asI168
(lp169
F0.12806637806637808
aF0.10966810966810966
aF0.262987012987013
aF0.18506493506493507
aF0.3142135642135642
asI169
(lp170
F0.052844160215415686
aF0.2857623695725345
aF0.12992258498821946
aF0.2584988219454729
aF0.27297206327835744
asI170
(lp171
F0.010801080108010801
aF0.09315931593159316
aF0.2079207920792079
aF0.3258325832583258
aF0.3622862286228623
asI171
(lp172
F0.33604436229205176
aF0.18040665434380776
aF0.3489833641404806
aF0.06210720887245841
aF0.07245841035120149
asI172
(lp173
F0.09568382735309412
aF0.12116484659386376
aF0.4420176807072283
aF0.046801872074883
aF0.29433177327093085
asI173
(lp174
F0.0009170105456212746
aF0.1338835396607061
aF0.218707015130674
aF0.21320495185694635
aF0.4332874828060523
asI174
(lp175
F0.028739867354458364
aF0.19749447310243184
aF0.0707442888725129
aF0.5416359616801769
aF0.16138540899042003
asI175
(lp176
F0.397979797979798
aF0.04323232323232323
aF0.19474747474747475
aF0.2795959595959596
aF0.08444444444444445
asI176
(lp177
F0.1227452705675319
aF0.344918609766828
aF0.03739551253849538
aF0.24637043554773427
aF0.24857017157941047
asI177
(lp178
F0.19672131147540983
aF0.15113954418232706
aF0.14434226309476209
aF0.3126749300279888
aF0.1951219512195122
asI178
(lp179
F0.6118115461181155
aF0.08825481088254811
aF0.038487060384870604
aF0.0710019907100199
aF0.19044459190444593
asI179
(lp180
F0.2160655737704918
aF0.20065573770491804
aF0.15934426229508197
aF0.3042622950819672
aF0.11967213114754098
asI180
(lp181
F0.1398166339227243
aF0.12442698100851342
aF0.23477406679764243
aF0.32154551407989523
aF0.17943680419122462
asI181
(lp182
F0.12473392933163048
aF0.26181353767560667
aF0.31971051511281395
aF0.0842911877394636
aF0.20945083014048532
asI182
(lp183
F0.07922461019806153
aF0.35145385587863465
aF0.26169405815423513
aF0.09565950273914876
aF0.21196797302991993
asI183
(lp184
F0.187
aF0.1695
aF0.059
aF0.4785
aF0.106
asI184
(lp185
F0.34577603143418467
aF0.09675834970530452
aF0.4636542239685658
aF0.06827111984282908
aF0.025540275049115914
asI185
(lp186
F0.20780254777070065
aF0.3037420382165605
aF0.36106687898089174
aF0.09912420382165606
aF0.028264331210191083
asI186
(lp187
F0.5635939323220537
aF0.09801633605600933
aF0.11435239206534423
aF0.020420070011668612
aF0.20361726954492415
asI187
(lp188
F0.021621621621621623
aF0.367983367983368
aF0.41122661122661125
aF0.043243243243243246
aF0.15592515592515593
asI188
(lp189
F0.30644523527085804
aF0.0711743772241993
aF0.16765519968366943
aF0.2570185844207197
aF0.19770660340055357
asI189
(lp190
F0.2510402219140083
aF0.15603328710124825
aF0.3079056865464632
aF0.2593619972260749
aF0.02565880721220527
asI190
(lp191
F0.18655162154120797
aF0.26926509967271645
aF0.0749776852127343
aF0.18744421303183575
aF0.2817613805415055
asI191
(lp192
F0.2657828282828283
aF0.26641414141414144
aF0.14898989898989898
aF0.1710858585858586
aF0.14772727272727273
asI192
(lp193
F0.34339167169583584
aF0.29511164755582375
aF0.0012070006035003018
aF0.12975256487628245
aF0.23053711526855764
asI193
(lp194
F0.25338253382533826
aF0.02788027880278803
aF0.3066830668306683
aF0.09143091430914309
aF0.3206232062320623
asI194
(lp195
F0.2087298982605842
aF0.04364949130292091
aF0.32294059730882835
aF0.27174269773547755
aF0.15293731539218905
asI195
(lp196
F0.19504480759093304
aF0.12598840274117026
aF0.10806536636794939
aF0.34053769109119664
aF0.23036373220875067
asI196
(lp197
F0.2626304801670146
aF0.2897703549060543
aF0.4175365344467641
aF0.02045929018789144
aF0.009603340292275574
asI197
(lp198
F0.05801376597836775
aF0.22123893805309736
aF0.2590953785644051
aF0.42330383480825956
aF0.038348082595870206
asI198
(lp199
F0.28575803981623277
aF0.12006125574272589
aF0.2431852986217458
aF0.08116385911179173
aF0.2698315467075038
asI199
(lp200
F0.16211453744493393
aF0.23377386196769456
aF0.0801762114537445
aF0.24552129221732746
aF0.27841409691629954
asI200
(lp201
F0.27936507936507937
aF0.0761904761904762
aF0.37142857142857144
aF0.10105820105820106
aF0.17195767195767195
asI201
(lp202
F0.04354527938342967
aF0.10635838150289018
aF0.34373795761078996
aF0.3441233140655106
aF0.1622350674373796
asI202
(lp203
F0.18378252788104088
aF0.18587360594795538
aF0.18866171003717472
aF0.21654275092936803
aF0.22513940520446096
asI203
(lp204
F0.2333637192342753
aF0.2689152233363719
aF0.27620783956244305
aF0.21178972956548162
aF0.009723488301428137
asI204
(lp205
F0.23902728351126928
aF0.12514827995255043
aF0.3962040332147094
aF0.0468564650059312
aF0.19276393831553973
asI205
(lp206
F0.3047047679191664
aF0.19229554783706979
aF0.2832333438585412
aF0.21313545942532364
aF0.006630880959898958
asI206
(lp207
F0.03081232492997199
aF0.368547418967587
aF0.25970388155262103
aF0.2460984393757503
aF0.09483793517406963
asI207
(lp208
F0.15223336371923427
aF0.11060467942874506
aF0.27013065937405045
aF0.27955028866605897
aF0.18748100881191126
asI208
(lp209
F0.317042208822596
aF0.06315455410980642
aF0.2653125991748651
aF0.2053316407489686
aF0.14915899714376388
asI209
(lp210
F0.5408895265423243
aF0.3199426111908178
aF0.07173601147776183
aF0.06384505021520803
aF0.003586800573888092
asI210
(lp211
F0.16103438142815163
aF0.11783720246841023
aF0.2371436967381722
aF0.25183661475168967
aF0.23214810461357627
asI211
(lp212
F0.06086668871981475
aF0.327820046311611
aF0.2643069798213695
aF0.06185908038372478
aF0.28514720476348
asI212
(lp213
F0.06732348111658457
aF0.18095238095238095
aF0.25188834154351397
aF0.19638752052545155
aF0.30344827586206896
asI213
(lp214
F0.16988533494266747
aF0.2972238986119493
aF0.21816535908267953
aF0.2676523838261919
aF0.04707302353651177
asI214
(lp215
F0.20687079910380882
aF0.3577296489917849
aF0.11725168035847648
aF0.3174010455563854
aF0.0007468259895444362
asI215
(lp216
F0.3722010984368399
aF0.05999155048584706
aF0.1187156738487537
aF0.189269117025771
aF0.2598225602027883
asI216
(lp217
F0.2071563088512241
aF0.15329566854990584
aF0.32504708097928436
aF0.16760828625235405
aF0.14689265536723164
asI217
(lp218
F0.39809714571857785
aF0.05908863294942414
aF0.3254882323485228
aF0.05808713069604406
aF0.15923885828743115
asI218
(lp219
F0.20025839793281655
aF0.06136950904392765
aF0.14599483204134367
aF0.5904392764857881
aF0.001937984496124031
asI219
(lp220
F0.2539109506618532
aF0.03890894504612916
aF0.2073806658644204
aF0.313678299237866
aF0.18612113918973125
asI220
(lp221
F0.09852216748768473
aF0.28790366721401206
aF0.3842364532019704
aF0.09961685823754789
aF0.1297208538587849
asI221
(lp222
F0.08163265306122448
aF0.08948194662480377
aF0.39050235478806905
aF0.3198587127158556
aF0.1185243328100471
asI222
(lp223
F0.15453527435610304
aF0.036394176931690926
aF0.32642777155655095
aF0.10918253079507279
aF0.3734602463605823
asI223
(lp224
F0.05580923389142567
aF0.3135464231354642
aF0.24606798579401318
aF0.35667174023338405
aF0.027904616945712835
asI224
(lp225
F0.25925925925925924
aF0.32605820105820105
aF0.09953703703703703
aF0.016203703703703703
aF0.29894179894179895
asI225
(lp226
F0.33389121338912137
aF0.05564853556485356
aF0.15397489539748954
aF0.30669456066945605
aF0.1497907949790795
asI226
(lp227
F0.40932060640089835
aF0.052779337450870295
aF0.20325659741718136
aF0.16900617630544637
aF0.1656372824256036
asI227
(lp228
F0.09952904238618525
aF0.14317111459968604
aF0.2634222919937206
aF0.29733124018838303
aF0.19654631083202512
asI228
(lp229
F0.19933184855233854
aF0.30066815144766146
aF0.017817371937639197
aF0.11191536748329621
aF0.37026726057906456
asI229
(lp230
F0.1682808716707022
aF0.08898305084745763
aF0.11198547215496368
aF0.17372881355932204
aF0.4570217917675545
asI230
(lp231
F0.03880831046648373
aF0.20109760878087024
aF0.35437083496667976
aF0.06938455507644062
aF0.33633869070952566
asI231
(lp232
F0.2550406791651928
aF0.23098691192076407
aF0.19136894234170498
aF0.04315528829147506
aF0.2794481782808631
asI232
(lp233
F0.04266321913380737
aF0.4473173884938591
aF0.06464124111182935
aF0.31092436974789917
aF0.13445378151260504
asI233
(lp234
F0.17191780821917807
aF0.13013698630136986
aF0.22226027397260273
aF0.26335616438356163
aF0.21232876712328766
asI234
(lp235
F0.16108545034642033
aF0.0005773672055427252
aF0.2338337182448037
aF0.3666281755196305
aF0.23787528868360278
asI235
(lp236
F0.28608771420273016
aF0.24629683415625908
aF0.1882079581760093
aF0.029915771129828638
aF0.2494917223351728
asI236
(lp237
F0.29444444444444445
aF0.39658119658119656
aF0.12478632478632479
aF0.14914529914529914
aF0.03504273504273504
asI237
(lp238
F0.2659441433930804
aF0.05627344726969571
aF0.4168403501458941
aF0.240100041684035
aF0.020842017507294707
asI238
(lp239
F0.280940243557066
aF0.2580005664117814
aF0.19314641744548286
aF0.13820447465307278
aF0.129708297932597
asI239
(lp240
F0.3745113369820172
aF0.30023455824863177
aF0.09538702111024237
aF0.011727912431587178
aF0.2181391712275215
asI240
(lp241
F0.125512104283054
aF0.3690875232774674
aF0.17690875232774675
aF0.1430167597765363
aF0.18547486033519553
asI241
(lp242
F0.18844022169437846
aF0.46872525732383213
aF0.19081551860649248
aF0.13460015835312747
aF0.01741884402216944
asI242
(lp243
F0.21047996477322764
aF0.005724350506384853
aF0.2866578599735799
aF0.17305151915455746
aF0.3240863055922501
asI243
(lp244
F0.15329626687847497
aF0.25377283558379665
aF0.2390786338363781
aF0.24106433677521844
aF0.11278792692613185
asI244
(lp245
F0.2987765614938828
aF0.23631680618158404
aF0.024790727623953637
aF0.24661944623309723
aF0.19349645846748229
asI245
(lp246
F0.1094457999302893
aF0.32206343673753923
aF0.009410944579993029
aF0.24294179156500523
aF0.3161380271871732
asI246
(lp247
F0.1700781540751768
aF0.12169705991812431
aF0.22776330480089318
aF0.14216598436918496
aF0.33829549683662075
asI247
(lp248
F0.07043756670224119
aF0.28103877623621487
aF0.030594094628246176
aF0.319815012451085
aF0.29811454998221276
asI248
(lp249
F0.2962328767123288
aF0.0684931506849315
aF0.3208904109589041
aF0.18698630136986302
aF0.1273972602739726
asI249
(lp250
F0.269897732325478
aF0.04313028012449978
aF0.1249444197421076
aF0.27167630057803466
aF0.29035126722988
asI250
(lp251
F0.2820168067226891
aF0.025210084033613446
aF0.1653781512605042
aF0.32638655462184873
aF0.20100840336134454
asI251
(lp252
F0.05516989404457435
aF0.20643039824625503
aF0.22323712093533066
aF0.20277676287906468
aF0.3123858238947753
asI252
(lp253
F0.19773519163763068
aF0.14634146341463414
aF0.36977351916376305
aF0.0017421602787456446
aF0.2844076655052265
asI253
(lp254
F0.2681220263084243
aF0.12454520011195074
aF0.2614049818080045
aF0.09767702211027147
aF0.248250769661349
asI254
(lp255
F0.09713977334052887
aF0.24123043712898004
aF0.14139233675121424
aF0.39233675121424716
aF0.1279007015650297
asI255
(lp256
F0.1609561752988048
aF0.09322709163346614
aF0.01195219123505976
aF0.25816733067729086
aF0.4756972111553785
asI256
(lp257
F0.1180842279108175
aF0.1370767960363336
aF0.3633360858794385
aF0.08257638315441784
aF0.2989265070189926
asI257
(lp258
F0.14867042707493958
aF0.17284448025785656
aF0.20104754230459307
aF0.12812248186946013
aF0.3493150684931507
asI258
(lp259
F0.025609756097560974
aF0.4695121951219512
aF0.30060975609756097
aF0.16585365853658537
aF0.03841463414634146
asI259
(lp260
F0.06883835279655809
aF0.24523663183773817
aF0.06699446834665028
aF0.11001843884449908
aF0.5089121081745543
asI260
(lp261
F0.3080568720379147
aF0.1061611374407583
aF0.09131121642969985
aF0.2796208530805687
aF0.21484992101105846
asI261
(lp262
F0.11931818181818182
aF0.37905844155844154
aF0.12256493506493507
aF0.002435064935064935
aF0.37662337662337664
asI262
(lp263
F0.3662767244856797
aF0.12585720048406615
aF0.22307382008874546
aF0.2379991932230738
aF0.04679306171843485
asI263
(lp264
F0.23882896764252695
aF0.17180277349768874
aF0.32819722650231126
aF0.1305855161787365
aF0.1305855161787365
asI264
(lp265
F0.23294723294723294
aF0.05019305019305019
aF0.3770913770913771
aF0.2754182754182754
aF0.06435006435006435
asI265
(lp266
F0.20088178561587214
aF0.24276660236979886
aF0.21217966381923395
aF0.21961972995315515
aF0.12455221824193993
asI266
(lp267
F0.1731669266770671
aF0.2720748829953198
aF0.0970358814352574
aF0.1934477379095164
aF0.2642745709828393
asI267
(lp268
F0.027669270833333332
aF0.20377604166666666
aF0.291015625
aF0.21809895833333334
aF0.2594401041666667
asI268
(lp269
F0.2637749120750293
aF0.3276670574443142
aF0.0492379835873388
aF0.21805392731535755
aF0.14126611957796015
asI269
(lp270
F0.23236163920574568
aF0.2336290663286861
aF0.07013096746937052
aF0.16603295310519645
aF0.29784537389100124
asI270
(lp271
F0.0688235294117647
aF0.49411764705882355
aF0.11705882352941177
aF0.23058823529411765
aF0.08941176470588236
asI271
(lp272
F0.23167539267015708
aF0.16858638743455498
aF0.21649214659685864
aF0.21596858638743455
aF0.16727748691099475
asI272
(lp273
F0.1601029601029601
aF0.1716859716859717
aF0.24555984555984556
aF0.2514800514800515
aF0.17117117117117117
asI273
(lp274
F0.3139792899408284
aF0.2581360946745562
aF0.14053254437869822
aF0.23002958579881658
aF0.05732248520710059
asI274
(lp275
F0.15163558544787525
aF0.22684194435952307
aF0.2901253439315194
aF0.07704066034851727
aF0.25435646591256494
asI275
(lp276
F0.1696927374301676
aF0.4022346368715084
aF0.13547486033519554
aF0.037011173184357544
aF0.25558659217877094
asI276
(lp277
F0.07643859146865159
aF0.18236472945891782
aF0.21700543945032924
aF0.25565416547380476
aF0.2685370741482966
asI277
(lp278
F0.344017094017094
aF0.25783475783475784
aF0.2774216524216524
aF0.11217948717948718
aF0.008547008547008548
asI278
(lp279
F0.22344110854503466
aF0.25808314087759815
aF0.13221709006928406
aF0.09844110854503464
aF0.2878175519630485
asI279
(lp280
F0.36829117828500924
aF0.4022208513263418
aF0.004935225169648365
aF0.21838371375694016
aF0.006169031462060457
asI280
(lp281
F0.24738154613466334
aF0.010972568578553617
aF0.10673316708229426
aF0.4603491271820449
aF0.1745635910224439
asI281
(lp282
F0.23044737689089154
aF0.1808818796266495
aF0.301255230125523
aF0.010299324106855488
aF0.27711618925008047
asI282
(lp283
F0.10108303249097472
aF0.09160649819494585
aF0.365072202166065
aF0.27075812274368233
aF0.17148014440433212
asI283
(lp284
F0.002771789344009855
aF0.25900831536803204
aF0.20234062211271944
aF0.2596242685555898
aF0.2762550046196489
asI284
(lp285
F0.08089668615984405
aF0.1232943469785575
aF0.09892787524366471
aF0.22173489278752437
aF0.47514619883040937
asI285
(lp286
F0.15417170495767835
aF0.21463119709794437
aF0.3301088270858525
aF0.047762998790810154
aF0.25332527206771466
asI286
(lp287
F0.21830985915492956
aF0.17812758906379453
aF0.2100248550124275
aF0.33264291632145815
aF0.060894780447390225
asI287
(lp288
F0.0012776831345826234
aF0.34497444633730834
aF0.2444633730834753
aF0.011499148211243612
aF0.3977853492333901
asI288
(lp289
F0.27115059221658205
aF0.16666666666666666
aF0.11379018612521151
aF0.2766497461928934
aF0.17174280879864637
asI289
(lp290
F0.35493072534637327
aF0.2114914425427873
aF0.04849225753871231
aF0.10228198859005705
aF0.2828035859820701
asI290
(lp291
F0.07577807848443843
aF0.15933694181326116
aF0.32036535859269283
aF0.2178619756427605
aF0.22665764546684708
asI291
(lp292
F0.2603622965919558
aF0.16364752840036845
aF0.27540681608842493
aF0.05587964384402825
aF0.2447037150752226
asI292
(lp293
F0.2213455149501661
aF0.0008305647840531562
aF0.329734219269103
aF0.09634551495016612
aF0.35174418604651164
asI293
(lp294
F0.08093278463648834
aF0.20987654320987653
aF0.1700960219478738
aF0.4554183813443073
aF0.08367626886145405
asI294
(lp295
F0.02466367713004484
aF0.6165919282511211
aF0.23542600896860988
aF0.026905829596412557
aF0.09641255605381166
asI295
(lp296
F0.32066869300911854
aF0.17553191489361702
aF0.09308510638297872
aF0.2693768996960486
aF0.1413373860182371
asI296
(lp297
F0.2110215053763441
aF0.04973118279569892
aF0.013440860215053764
aF0.1646505376344086
aF0.5611559139784946
asI297
(lp298
F0.15538847117794485
aF0.28613199665831246
aF0.2982456140350877
aF0.11737677527151211
aF0.14285714285714285
asI298
(lp299
F0.15857852502865877
aF0.16927779900649598
aF0.2762705387848682
aF0.2548719908291937
aF0.14100114635078334
asI299
(lp300
F0.0089179548156956
aF0.0089179548156956
aF0.18370986920332938
aF0.48335315101070153
aF0.3151010701545779
asI300
(lp301
F0.22751149047931712
aF0.2984241628365069
aF0.267892317793828
aF0.13591595535128037
aF0.07025607353906763
asI301
(lp302
F0.3296189791516894
aF0.20848310567936737
aF0.20201294033069733
aF0.017253774263120056
aF0.2426312005751258
asI302
(lp303
F0.1319882303488861
aF0.35855401429171924
aF0.21563682219419925
aF0.20975199663724253
aF0.08406893652795293
asI303
(lp304
F0.3389002036659878
aF0.36822810590631366
aF0.2545824847250509
aF0.015071283095723014
aF0.023217922606924644
asI304
(lp305
F0.25014961101137045
aF0.22621184919210055
aF0.0466786355475763
aF0.4679832435667265
aF0.008976660682226212
asI305
(lp306
F0.17909882620219614
aF0.19310867095797046
aF0.13896251419916697
aF0.29988640666414235
aF0.18894358197652406
asI306
(lp307
F0.079476861167002
aF0.28621730382293764
aF0.1056338028169014
aF0.29527162977867205
aF0.23340040241448692
asI307
(lp308
F0.20674977196716326
aF0.18546670720583763
aF0.28063241106719367
aF0.22560048647005168
aF0.10155062328975373
asI308
(lp309
F0.32955376737381126
aF0.12289685442574981
aF0.1755669348939283
aF0.20446232626188734
aF0.16752011704462327
asI309
(lp310
F0.24605214836577305
aF0.06757253029746603
aF0.23430040396621374
aF0.085200146896805
aF0.3668747704737422
asI310
(lp311
F0.27693474962063735
aF0.24355083459787558
aF0.006449165402124431
aF0.36418816388467373
aF0.10887708649468893
asI311
(lp312
F0.07946692991115499
aF0.05873642645607108
aF0.2694965449160908
aF0.22556762092793683
aF0.3667324777887463
asI312
(lp313
F0.03366524419155998
aF0.19914651493598862
aF0.3812233285917496
aF0.09815078236130868
aF0.2878141299193931
asI313
(lp314
F0.08776978417266187
aF0.4302158273381295
aF0.42973621103117504
aF0.026378896882494004
aF0.025899280575539568
asI314
(lp315
F0.2007534983853606
aF0.21797631862217437
aF0.12917115177610333
aF0.4133476856835307
aF0.038751345532831
asI315
(lp316
F0.020065520065520065
aF0.13882063882063883
aF0.33005733005733007
aF0.28746928746928746
aF0.22358722358722358
asI316
(lp317
F0.1415025528811087
aF0.2910284463894967
aF0.2778993435448578
aF0.02224653537563822
aF0.2673231218088986
asI317
(lp318
F0.2512780180888714
aF0.2115611482500983
aF0.020841525756979944
aF0.3893039716869839
aF0.12701533621706645
asI318
(lp319
F0.24202975557917109
aF0.1179596174282678
aF0.21174282678002126
aF0.19845908607863974
aF0.2298087141339001
asI319
(lp320
F0.16539440203562342
aF0.16539440203562342
aF0.15458015267175573
aF0.003816793893129771
aF0.5108142493638677
asI320
(lp321
F0.20261437908496732
aF0.318753142282554
aF0.4384112619406737
aF0.027149321266968326
aF0.013071895424836602
asI321
(lp322
F0.32986832986832987
aF0.2862092862092862
aF0.29902979902979904
aF0.02286902286902287
aF0.062023562023562025
asI322
(lp323
F0.23846726190476192
aF0.2760416666666667
aF0.0974702380952381
aF0.09821428571428571
aF0.2898065476190476
asI323
(lp324
F0.4358974358974359
aF0.06776556776556776
aF0.14148351648351648
aF0.1304945054945055
aF0.22435897435897437
asI324
(lp325
F0.2706689536878216
aF0.0010291595197255575
aF0.33413379073756433
aF0.1451114922813036
aF0.2490566037735849
asI325
(lp326
F0.15203915171288743
aF0.10146818923327895
aF0.27177814029363784
aF0.30440456769983687
aF0.1703099510603589
asI326
(lp327
F0.021252796420581657
aF0.15715883668903805
aF0.3512304250559284
aF0.2651006711409396
aF0.2052572706935123
asI327
(lp328
F0.17806160781367392
aF0.3148009015777611
aF0.21036814425244177
aF0.1889556724267468
aF0.10781367392937641
asI328
(lp329
F0.016810344827586206
aF0.05862068965517241
aF0.3400862068965517
aF0.2875
aF0.2969827586206897
asI329
(lp330
F0.006276150627615063
aF0.006276150627615063
aF0.25993723849372385
aF0.4932008368200837
aF0.23430962343096234
asI330
(lp331
F0.344869459623558
aF0.48148148148148145
aF0.06375227686703097
aF0.0024286581663630845
aF0.10746812386156648
asI331
(lp332
F0.22076749435665916
aF0.26455981941309253
aF0.34492099322799097
aF0.15395033860045146
aF0.01580135440180587
asI332
(lp333
F0.1579338535860275
aF0.25863991081382387
aF0.07543664065403195
aF0.2601263470828688
aF0.24786324786324787
asI333
(lp334
F0.008182141586623977
aF0.3297758804695838
aF0.3322660974742085
aF0.05834222696549271
aF0.27143365350409104
asI334
(lp335
F0.21628721541155868
aF0.13879159369527144
aF0.3178633975481611
aF0.10376532399299475
aF0.22329246935201402
asI335
(lp336
F0.268885564697083
aF0.04113687359760658
aF0.23784592370979807
aF0.3070306656694091
aF0.14510097232610322
asI336
(lp337
F0.4658676393955185
aF0.2376237623762376
aF0.012506513809275664
aF0.03178738926524231
aF0.2522146951537259
asI337
(lp338
F0.03776737967914438
aF0.30815508021390375
aF0.178475935828877
aF0.25
aF0.22560160427807488
asI338
(lp339
F0.1276365603028664
aF0.08761492698756085
aF0.2725797728501893
aF0.29637641968631695
aF0.21579232017306652
asI339
(lp340
F0.09657875980042765
aF0.35424091233071986
aF0.2947255880256593
aF0.045972915181753386
aF0.20848182466143977
asI340
(lp341
F0.14607107923051843
aF0.2918161069448973
aF0.3055102706227584
aF0.008477339419628301
aF0.2481252037821976
asI341
(lp342
F0.2193717277486911
aF0.15968586387434555
aF0.009424083769633508
aF0.29109947643979056
aF0.3204188481675393
asI342
(lp343
F0.21780352910192258
aF0.2470371345799315
aF0.24255991572293917
aF0.1063997893073479
aF0.18619963128785882
asI343
(lp344
F0.18625
aF0.2303125
aF0.2840625
aF0.185625
aF0.11375
asI344
(lp345
F0.17607413647851727
aF0.15922493681550126
aF0.2670598146588037
aF0.04970513900589722
aF0.34793597304128054
asI345
(lp346
F0.16618635926993275
aF0.40634005763688763
aF0.1988472622478386
aF0.20893371757925072
aF0.0196926032660903
asI346
(lp347
F0.25650674192536843
aF0.24176857949200375
aF0.17591721542803387
aF0.20319849482596425
aF0.12260896832862966
asI347
(lp348
F0.3157894736842105
aF0.20175438596491227
aF0.02631578947368421
aF0.02280701754385965
aF0.43333333333333335
asI348
(lp349
F0.2774774774774775
aF0.14594594594594595
aF0.3554054054054054
aF0.10135135135135136
aF0.11981981981981982
asI349
(lp350
F0.08465368945224083
aF0.3784517881394296
aF0.22815753734721594
aF0.19375282933454052
aF0.11498415572657311
asI350
(lp351
F0.03851963746223565
aF0.36555891238670696
aF0.24584592145015105
aF0.21450151057401812
aF0.1355740181268882
asI351
(lp352
F0.0708029197080292
aF0.07153284671532846
aF0.45255474452554745
aF0.24452554744525548
aF0.16058394160583941
asI352
(lp353
F0.06156274664561957
aF0.2154696132596685
aF0.18587213891081295
aF0.19810576164167323
aF0.3389897395422257
asI353
(lp354
F0.040907400520639646
aF0.3413908516177018
aF0.04797322424693194
aF0.229081442915582
aF0.3406470806991447
asI354
(lp355
F0.3467600700525394
aF0.13134851138353765
aF0.35157618213660247
aF0.07924693520140105
aF0.09106830122591944
asI355
(lp356
F0.24310618066561016
aF0.3153724247226624
aF0.05229793977812995
aF0.0751188589540412
aF0.31410459587955625
asI356
(lp357
F0.25371934057096907
aF0.10494571773220748
aF0.2376357056694813
aF0.072778447929232
aF0.33092078809811015
asI357
(lp358
F0.25683279742765275
aF0.19815112540192925
aF0.028135048231511254
aF0.12339228295819936
aF0.3934887459807074
asI358
(lp359
F0.1732254505332843
aF0.0018389113644722325
aF0.11732254505332843
aF0.36667892607576313
aF0.3409341669731519
asI359
(lp360
F0.09749303621169916
aF0.26016713091922006
aF0.2350974930362117
aF0.2381615598885794
aF0.1690807799442897
asI360
(lp361
F0.32958984375
aF0.22216796875
aF0.0712890625
aF0.0205078125
aF0.3564453125
asI361
(lp362
F0.20047732696897375
aF0.10580747812251393
aF0.045346062052505964
aF0.35839299920445505
aF0.28997613365155134
asI362
(lp363
F0.12783595113438045
aF0.156195462478185
aF0.09642233856893542
aF0.3093368237347295
aF0.3102094240837696
asI363
(lp364
F0.009191176470588236
aF0.2426470588235294
aF0.06341911764705882
aF0.37316176470588236
aF0.3115808823529412
asI364
(lp365
F0.20374283127075157
aF0.2798068216118322
aF0.2764865680651977
aF0.1952912767884093
aF0.044672502263809234
asI365
(lp366
F0.28280060882800606
aF0.1765601217656012
aF0.047488584474885846
aF0.2578386605783866
aF0.23531202435312024
asI366
(lp367
F0.32069249793899424
aF0.021846661170651278
aF0.151277823577906
aF0.3957131079967024
aF0.11046990931574609
asI367
(lp368
F0.09497762307309796
aF0.34012928891098954
aF0.0676280457483839
aF0.43063152660367976
aF0.06663351566384883
asI368
(lp369
F0.2063063063063063
aF0.002702702702702703
aF0.09279279279279279
aF0.4355855855855856
aF0.2626126126126126
asI369
(lp370
F0.37854757929883137
aF0.2938230383973289
aF0.27378964941569284
aF0.025041736227045076
aF0.028797996661101836
asI370
(lp371
F0.19565872776605367
aF0.16701839011154657
aF0.19475429605064817
aF0.15526077781127526
aF0.28730780826047636
asI371
(lp372
F0.07680372381691233
aF0.4895267649340574
aF0.2009309542280838
aF0.1908456167571761
aF0.04189294026377036
asI372
(lp373
F0.2430780294857965
aF0.0017979144192736426
aF0.15354189140596908
aF0.3243437612369651
aF0.2772384034519957
asI373
(lp374
F0.20930232558139536
aF0.28924418604651164
aF0.39026162790697677
aF0.09665697674418605
aF0.014534883720930232
asI374
(lp375
F0.2234877246266768
aF0.240445456846368
aF0.08731966590736523
aF0.20425208807896736
aF0.24449506454062261
asI375
(lp376
F0.1866235167206041
aF0.1429341963322546
aF0.1429341963322546
aF0.10895361380798274
aF0.418554476806904
asI376
(lp377
F0.27971503562054745
aF0.052868391451068614
aF0.3164604424446944
aF0.00562429696287964
aF0.34533183352080987
asI377
(lp378
F0.15476810838978636
aF0.19437206878582594
aF0.03491401771756123
aF0.28556539864512764
aF0.3303804064616988
asI378
(lp379
F0.09090909090909091
aF0.2841458058849363
aF0.19806763285024154
aF0.24330259112867808
aF0.18357487922705315
asI379
(lp380
F0.04738154613466334
aF0.399833748960931
aF0.040731504571903575
aF0.20906068162926017
aF0.3029925187032419
asI380
(lp381
F0.31912964641885766
aF0.0
aF0.6119673617407072
aF0.04170444242973708
aF0.027198549410698096
asI381
(lp382
F0.06590833054533289
aF0.15490130478420877
aF0.32117765138842425
aF0.25928404148544665
aF0.19872867179658749
asI382
(lp383
F0.29097222222222224
aF0.07222222222222222
aF0.34444444444444444
aF0.25555555555555554
aF0.03680555555555556
asI383
(lp384
F0.14656771799628943
aF0.07421150278293136
aF0.32560296846011133
aF0.23794063079777367
aF0.21567717996289426
asI384
(lp385
F0.12318087318087319
aF0.12214137214137215
aF0.5051975051975052
aF0.24636174636174638
aF0.0031185031185031187
asI385
(lp386
F0.2613981762917933
aF0.17352859906051396
aF0.13843603205305333
aF0.27300359215252834
aF0.15363360044211108
asI386
(lp387
F0.2541954590325765
aF0.31243830207305034
aF0.1717670286278381
aF0.0755182625863771
aF0.18608094768015795
asI387
(lp388
F0.23302430468554247
aF0.23653219744424955
aF0.2463041844149336
aF0.20746680030067652
aF0.07667251315459785
asI388
(lp389
F0.1320754716981132
aF0.3752620545073375
aF0.3149895178197065
aF0.14517819706498952
aF0.03249475890985325
asI389
(lp390
F0.10734163795388285
aF0.23588656241717465
aF0.260270341902995
aF0.15372382719321495
aF0.24277763053273257
asI390
(lp391
F0.004095004095004095
aF0.06715806715806716
aF0.12285012285012285
aF0.12039312039312039
aF0.6855036855036855
asI391
(lp392
F0.35119047619047616
aF0.05873015873015873
aF0.14484126984126985
aF0.09801587301587301
aF0.3472222222222222
asI392
(lp393
F0.20395480225988702
aF0.05734463276836158
aF0.2807909604519774
aF0.268361581920904
aF0.18954802259887005
asI393
(lp394
F0.4146449051610057
aF0.08822232024702249
aF0.02646669607410675
aF0.2858403176003529
aF0.18482576091751213
asI394
(lp395
F0.3515103962338172
aF0.015300117693213025
aF0.17222440172616713
aF0.33111023930953315
aF0.12985484503726952
asI395
(lp396
F0.2065450643776824
aF0.1896459227467811
aF0.19313304721030042
aF0.18562231759656653
aF0.22505364806866954
asI396
(lp397
F0.2874199184624345
aF0.17093768200349446
aF0.08648806057076296
aF0.26499708794408855
aF0.19015725101921957
asI397
(lp398
F0.2882154882154882
aF0.201010101010101
aF0.13905723905723905
aF0.13131313131313133
aF0.2404040404040404
asI398
(lp399
F0.20856685348278622
aF0.3050440352281825
aF0.18214571657325862
aF0.05844675740592474
aF0.24579663730984788
asI399
(lp400
F0.11072144288577154
aF0.11022044088176353
aF0.045090180360721446
aF0.32014028056112226
aF0.41382765531062127
asI400
(lp401
F0.3022410660205936
aF0.1420351302241066
aF0.290732889158086
aF0.16929133858267717
aF0.09569957601453664
asI401
(lp402
F0.1401308615049073
aF0.03980370774263904
aF0.0648854961832061
aF0.2633587786259542
aF0.49182115594329334
asI402
(lp403
F0.3309462915601023
aF0.0010230179028132991
aF0.059846547314578
aF0.2721227621483376
aF0.3360613810741688
asI403
(lp404
F0.0405449237755433
aF0.29938371715861173
aF0.20142718131689913
aF0.14498864742134285
aF0.31365553032760296
asI404
(lp405
F0.2928272980501393
aF0.30118384401114207
aF0.026462395543175487
aF0.03969359331476323
aF0.3398328690807799
asI405
(lp406
F0.07922392886014551
aF0.16046887631366208
aF0.28294260307194824
aF0.2526273241713824
aF0.22473726758286175
asI406
(lp407
F0.2998394863563403
aF0.21797752808988763
aF0.22728731942215089
aF0.01765650080256822
aF0.23723916532905298
asI407
(lp408
F0.3367528991971454
aF0.08251561106155218
aF0.09768064228367529
aF0.2711864406779661
aF0.211864406779661
asI408
(lp409
F0.41871657754010694
aF0.06149732620320856
aF0.13796791443850268
aF0.08609625668449197
aF0.29572192513368983
asI409
(lp410
F0.004076878276062901
aF0.4100174723354688
aF0.18462434478741993
aF0.07979033197437391
aF0.3214909726266744
asI410
(lp411
F0.20475954387704512
aF0.12989588497768964
aF0.3321764997521071
aF0.13187902825979178
aF0.20128904313336637
asI411
(lp412
F0.025833724753405354
aF0.2766557069046501
aF0.03663691874119305
aF0.34899013621418506
aF0.31188351338656645
asI412
(lp413
F0.16310914216673378
aF0.14740233588401128
aF0.18364881192106322
aF0.243254128070882
aF0.2625855819573097
asI413
(lp414
F0.11409395973154363
aF0.3460104399701715
aF0.10439970171513796
aF0.10514541387024609
aF0.3303504847129008
asI414
(lp415
F0.07223264540337711
aF0.12054409005628518
aF0.46153846153846156
aF0.20121951219512196
aF0.14446529080675422
asI415
(lp416
F0.18454935622317598
aF0.5862660944206008
aF0.16738197424892703
aF0.05236051502145923
aF0.00944206008583691
asI416
(lp417
F0.17471675611210494
aF0.26833631484794274
aF0.1735241502683363
aF0.2334525939177102
aF0.14997018485390579
asI417
(lp418
F0.26131221719457015
aF0.0673076923076923
aF0.2553733031674208
aF0.16572398190045248
aF0.25028280542986425
asI418
(lp419
F0.25510534846029176
aF0.0473257698541329
aF0.0920583468395462
aF0.32188006482982173
aF0.28363047001620745
asI419
(lp420
F0.07788671023965142
aF0.4074074074074074
aF0.04357298474945534
aF0.19989106753812635
aF0.27124183006535946
asI420
(lp421
F0.3572735590118939
aF0.09743824336688015
aF0.09103385178408051
aF0.10155535224153706
aF0.3526989935956084
asI421
(lp422
F0.024029574861367836
aF0.43376463339494764
aF0.1423290203327172
aF0.03820086260012323
aF0.3616759088108441
asI422
(lp423
F0.2609579100145138
aF0.17939042089985485
aF0.2760522496371553
aF0.2574746008708273
aF0.026124818577648767
asI423
(lp424
F0.12883642495784148
aF0.24249578414839798
aF0.209106239460371
aF0.22462057335581787
aF0.19494097807757166
asI424
(lp425
F0.24608775698066893
aF0.1942313593126726
aF0.11475912856704511
aF0.205891377723228
aF0.2390303774163854
asI425
(lp426
F0.19911937377690803
aF0.09833659491193737
aF0.36545988258317025
aF0.21868884540117417
aF0.11839530332681017
asI426
(lp427
F0.13454545454545455
aF0.3991919191919192
aF0.06505050505050505
aF0.355959595959596
aF0.04525252525252525
asI427
(lp428
F0.1896039603960396
aF0.15742574257425743
aF0.1797029702970297
aF0.27673267326732676
aF0.19653465346534654
asI428
(lp429
F0.1385972280554389
aF0.08441831163376733
aF0.18983620327593448
aF0.3229735405291894
aF0.26417471650566987
asI429
(lp430
F0.1865079365079365
aF0.16170634920634921
aF0.14434523809523808
aF0.08085317460317461
aF0.42658730158730157
asI430
(lp431
F0.36327185244587007
aF0.05934242181234964
aF0.23416198877305533
aF0.2830793905372895
aF0.060144346431435444
asI431
(lp432
F0.18898931799506985
aF0.028348397699260477
aF0.2502054231717338
aF0.15283483976992604
aF0.37962202136400985
asI432
(lp433
F0.10618479880774963
aF0.21721311475409835
aF0.19076005961251863
aF0.11773472429210134
aF0.368107302533532
asI433
(lp434
F0.18610335195530725
aF0.2751396648044693
aF0.10300279329608938
aF0.2678072625698324
aF0.16794692737430167
asI434
(lp435
F0.28984989278055756
aF0.2673338098641887
aF0.036454610436025735
aF0.2305218012866333
aF0.1758398856325947
asI435
(lp436
F0.22082283795130142
aF0.3350125944584383
aF0.028547439126784216
aF0.15952980688497062
aF0.25608732157850544
asI436
(lp437
F0.1691416153567548
aF0.3223469757334299
aF0.141615356754799
aF0.32053603766751176
aF0.04636001448750453
asI437
(lp438
F0.3340257582052347
aF0.08392189447444952
aF0.2658911508101371
aF0.12671375155795597
aF0.18944744495222268
asI438
(lp439
F0.25377229080932784
aF0.23566529492455418
aF0.2716049382716049
aF0.08120713305898491
aF0.15775034293552812
asI439
(lp440
F0.25579735997145914
aF0.14377452729218695
aF0.33820906171958615
aF0.10560114163396361
aF0.15661790938280415
asI440
(lp441
F0.2537084398976982
aF0.0
aF0.24808184143222506
aF0.4716112531969309
aF0.02659846547314578
asI441
(lp442
F0.05456634118322803
aF0.5215393452039058
aF0.1499138426191844
aF0.0350373348650201
aF0.2389431361286617
asI442
(lp443
F0.09514866979655712
aF0.23129890453834115
aF0.29608763693270734
aF0.29859154929577464
aF0.07887323943661972
asI443
(lp444
F0.2592250922509225
aF0.4294280442804428
aF0.17666051660516605
aF0.1268450184501845
aF0.007841328413284132
asI444
(lp445
F0.14557485525227462
aF0.06617038875103391
aF0.3891645988420182
aF0.14846980976013235
aF0.2506203473945409
asI445
(lp446
F0.02204724409448819
aF0.215748031496063
aF0.11863517060367454
aF0.2451443569553806
aF0.3984251968503937
asI446
(lp447
F0.29832935560859186
aF0.1809864757358791
aF0.15433571996817821
aF0.2199681782020684
aF0.14638027048528243
asI447
(lp448
F0.026909378709932725
aF0.01741195092995647
aF0.372378314206569
aF0.33992876929165017
aF0.24337158686189156
asI448
(lp449
F0.5003182686187142
aF0.03564608529598982
aF0.18141311266709104
aF0.08274984086569065
aF0.19987269255251433
asI449
(lp450
F0.3252915158825895
aF0.24085243264977885
aF0.25371934057096907
aF0.11901889827100925
aF0.0611178126256534
asI450
(lp451
F0.3997867803837953
aF0.2260127931769723
aF0.11460554371002132
aF0.060767590618336885
aF0.1988272921108742
asI451
(lp452
F0.1388733965421082
aF0.3184606804238706
aF0.113218070273285
aF0.26547685443390967
aF0.16397099832682654
asI452
(lp453
F0.30086510733739186
aF0.029477731496315284
aF0.30118551746235184
aF0.25152194809355977
aF0.1169496956103813
asI453
(lp454
F0.17505882352941177
aF0.12
aF0.26776470588235296
aF0.3270588235294118
aF0.11011764705882353
asI454
(lp455
F0.3155473781048758
aF0.1858325666973321
aF0.3160073597056118
aF0.06899724011039558
aF0.11361545538178473
asI455
(lp456
F0.3644787644787645
aF0.28725868725868725
aF0.13166023166023166
aF0.03667953667953668
aF0.1799227799227799
asI456
(lp457
F0.2360275150472915
aF0.1122098022355976
aF0.06276870163370593
aF0.3009458297506449
aF0.2880481513327601
asI457
(lp458
F0.21487603305785125
aF0.021900826446280993
aF0.1243801652892562
aF0.29338842975206614
aF0.34545454545454546
asI458
(lp459
F0.10443320440345136
aF0.08301100862838441
aF0.2847366855102648
aF0.28295150252900925
aF0.2448675989288902
asI459
(lp460
F0.1182897862232779
aF0.41330166270783847
aF0.11923990498812352
aF0.03657957244655582
aF0.3125890736342043
asI460
(lp461
F0.13708563535911603
aF0.07285911602209945
aF0.3062845303867403
aF0.3052486187845304
aF0.17852209944751382
asI461
(lp462
F0.2260432766615147
aF0.0919629057187017
aF0.20131375579598146
aF0.3369397217928903
aF0.1437403400309119
asI462
(lp463
F0.1687218045112782
aF0.29172932330827067
aF0.23218045112781954
aF0.23218045112781954
aF0.07518796992481203
asI463
(lp464
F0.4388246628131021
aF0.11078998073217726
aF0.036608863198458574
aF0.4046242774566474
aF0.009152215799614644
asI464
(lp465
F0.16273421235253296
aF0.0912560721721027
aF0.32616238723108953
aF0.3157529493407356
aF0.1040943789035392
asI465
(lp466
F0.0878169449598021
aF0.14965986394557823
aF0.07421150278293136
aF0.46258503401360546
aF0.22572665429808286
asI466
(lp467
F0.1467621217051741
aF0.1454604620891637
aF0.2342987308818744
aF0.20403514480963228
aF0.26944354051415553
asI467
(lp468
F0.15774760383386582
aF0.35543130990415334
aF0.06190095846645367
aF0.1964856230031949
aF0.22843450479233227
asI468
(lp469
F0.08726287262872628
aF0.4943089430894309
aF0.16531165311653118
aF0.02005420054200542
aF0.23306233062330622
asI469
(lp470
F0.23443421765024364
aF0.1404981050351922
aF0.26448294531672983
aF0.1578234975636167
aF0.20276123443421765
asI470
(lp471
F0.07556935817805382
aF0.21428571428571427
aF0.19047619047619047
aF0.41304347826086957
aF0.10662525879917184
asI471
(lp472
F0.11297709923664122
aF0.48244274809160304
aF0.08498727735368956
aF0.10941475826972011
aF0.21017811704834605
asI472
(lp473
F0.20745820831547365
aF0.06429489927132448
aF0.35705100728675526
aF0.04629232747535362
aF0.324903557651093
asI473
(lp474
F0.2631578947368421
aF0.15630944831959417
aF0.19213696892834495
aF0.2907419150285352
aF0.09765377298668358
asI474
(lp475
F0.0336996336996337
aF0.22417582417582418
aF0.1663003663003663
aF0.4901098901098901
aF0.08571428571428572
asI475
(lp476
F0.26990049751243783
aF0.12095771144278607
aF0.15920398009950248
aF0.15733830845771143
aF0.29259950248756217
asI476
(lp477
F0.037236243276789406
aF0.21721141911460487
aF0.39180802647910634
aF0.224244931733554
aF0.12949937939594539
asI477
(lp478
F0.2158154859967051
aF0.21911037891268534
aF0.2216992233466698
aF0.2275829606966345
aF0.11579195104730525
asI478
(lp479
F0.2527519051651143
aF0.1397121083827265
aF0.09906858594411516
aF0.3556308213378493
aF0.15283657917019475
asI479
(lp480
F0.25144175317185696
aF0.34409842368319876
aF0.29988465974625145
aF0.03729334871203383
aF0.06728181468665898
asI480
(lp481
F0.16835349296470006
aF0.2194519871636633
aF0.21056529252036535
aF0.15897309306344112
aF0.24265613428783017
asI481
(lp482
F0.23918448533068126
aF0.17876678269517654
aF0.13475882645450024
aF0.21680755842864247
aF0.2304823470909995
asI482
(lp483
F0.06564141035258815
aF0.28244561140285074
aF0.2618154538634659
aF0.13953488372093023
aF0.25056264066016504
asI483
(lp484
F0.296551724137931
aF0.05517241379310345
aF0.19517241379310346
aF0.16241379310344828
aF0.2906896551724138
asI484
(lp485
F0.0022104332449160036
aF0.39301503094606544
aF0.04155614500442087
aF0.34438549955791337
aF0.21883289124668434
asI485
(lp486
F0.0933602965958881
aF0.28075497135153354
aF0.30030333670374115
aF0.11897539602291878
aF0.20660599932591844
asI486
(lp487
F0.21312519910799618
aF0.1643835616438356
aF0.24944249761070406
aF0.07868748008920039
aF0.29436126154826375
asI487
(lp488
F0.31394072447859495
aF0.05598243688254665
aF0.2791803878521771
aF0.3391877058177827
aF0.011708744968898645
asI488
(lp489
F0.3543219076005961
aF0.2671385991058122
aF0.13338301043219075
aF0.14418777943368108
aF0.10096870342771982
asI489
(lp490
F0.2673758865248227
aF0.25354609929078015
aF0.14148936170212767
aF0.15531914893617021
aF0.1822695035460993
asI490
(lp491
F0.2723781388478582
aF0.13825701624815362
aF0.2901033973412112
aF0.2759231905465288
aF0.023338257016248153
asI491
(lp492
F0.2077727952167414
aF0.17997010463378177
aF0.22242152466367712
aF0.11599402092675636
aF0.27384155455904335
asI492
(lp493
F0.12518301610541727
aF0.14494875549048317
aF0.07759882869692533
aF0.29209370424597364
aF0.3601756954612006
asI493
(lp494
F0.15051194539249146
aF0.29283276450511947
aF0.05255972696245734
aF0.178839590443686
aF0.32525597269624573
asI494
(lp495
F0.32170156198072447
aF0.17746759720837488
aF0.16683283482884678
aF0.3230309072781655
aF0.010967098703888335
asI495
(lp496
F0.2569078947368421
aF0.09802631578947368
aF0.3069078947368421
aF0.2746710526315789
aF0.06348684210526316
asI496
(lp497
F0.017225747960108794
aF0.4252039891205802
aF0.2964641885766092
aF0.038077969174977334
aF0.2230281051677244
asI497
(lp498
F0.045104510451045104
aF0.06820682068206821
aF0.41144114411441146
aF0.2002200220022002
aF0.27502750275027504
asI498
(lp499
F0.24247606019151846
aF0.2862517099863201
aF0.01573187414500684
aF0.3313953488372093
aF0.12414500683994528
asI499
(lp500
F0.42057212416311623
aF0.007912355447352405
aF0.09799147900182593
aF0.418746195982958
aF0.054777845404747415
asI500
(lp501
F0.17950530035335688
aF0.2830388692579505
aF0.19257950530035337
aF0.3215547703180212
aF0.023321554770318022
asI501
(lp502
F0.4322120285423038
aF0.0835881753312946
aF0.12436289500509684
aF0.08970438328236494
aF0.2701325178389399
asI502
(lp503
F0.3
aF0.03442622950819672
aF0.5336065573770492
aF0.08524590163934426
aF0.04672131147540984
asI503
(lp504
F0.3435754189944134
aF0.1403631284916201
aF0.47835195530726254
aF0.0356145251396648
aF0.002094972067039106
asI504
(lp505
F0.4005751848808546
aF0.18775677896466722
aF0.03656532456861134
aF0.3697617091207888
aF0.005341002465078061
asI505
(lp506
F0.0452991452991453
aF0.358974358974359
aF0.06837606837606838
aF0.09658119658119659
aF0.4307692307692308
asI506
(lp507
F0.09342560553633218
aF0.16020761245674742
aF0.24498269896193772
aF0.1944636678200692
aF0.3069204152249135
asI507
(lp508
F0.0440026075619296
aF0.2076271186440678
aF0.3057366362451108
aF0.14113428943937417
aF0.3014993481095176
asI508
(lp509
F0.10490856592877768
aF0.23195380173243504
aF0.17452678857876164
aF0.17452678857876164
aF0.31408405518126403
asI509
(lp510
F0.03278688524590164
aF0.09553420011305823
aF0.0570944036178632
aF0.5268513284341436
aF0.28773318258903335
asI510
(lp511
F0.24141483516483517
aF0.0673076923076923
aF0.1778846153846154
aF0.22287087912087913
aF0.29052197802197804
asI511
(lp512
F0.39201995012468827
aF0.07680798004987531
aF0.1286783042394015
aF0.15012468827930175
aF0.2523690773067332
asI512
(lp513
F0.3036732108929702
aF0.08993033565547814
aF0.05098163394553515
aF0.2688410386320456
aF0.28657378087397084
asI513
(lp514
F0.02962962962962963
aF0.24592592592592594
aF0.14666666666666667
aF0.3160493827160494
aF0.2617283950617284
asI514
(lp515
F0.04391582799634035
aF0.06404391582799634
aF0.28545288197621227
aF0.24794144556267156
aF0.3586459286367795
asI515
(lp516
F0.30944741532976827
aF0.22139037433155082
aF0.23493761140819963
aF0.18253119429590017
aF0.05169340463458111
asI516
(lp517
F0.20680147058823528
aF0.09650735294117647
aF0.17493872549019607
aF0.22303921568627452
aF0.29871323529411764
asI517
(lp518
F0.21568627450980393
aF0.21773825809393524
aF0.20428636570907432
aF0.20405836753305973
aF0.15823073415412678
asI518
(lp519
F0.1280300443837487
aF0.2652782519631273
aF0.17138955274837828
aF0.3403892113349266
aF0.09491293956981905
asI519
(lp520
F0.1586791350087668
aF0.12857977790765635
aF0.20426651081239042
aF0.24985388661601401
aF0.25862068965517243
asI520
(lp521
F0.29534981147884376
aF0.28152492668621704
aF0.09258483452031839
aF0.08420611646418098
aF0.24633431085043989
asI521
(lp522
F0.12645437844458052
aF0.057256582976117576
aF0.2737293325168402
aF0.3000612369871402
aF0.2424984690753215
asI522
(lp523
F0.33691756272401435
aF0.332536837913182
aF0.22939068100358423
aF0.03424930306650737
aF0.06690561529271206
asI523
(lp524
F0.382679180887372
aF0.2295221843003413
aF0.036262798634812285
aF0.20861774744027303
aF0.14291808873720135
asI524
(lp525
F0.0332174584781769
aF0.36770954036307457
aF0.1425260718424102
aF0.30204712244109694
aF0.1544998068752414
asI525
(lp526
F0.05551497443389335
aF0.3279766252739226
aF0.039444850255661065
aF0.26004382761139516
aF0.3170197224251278
asI526
(lp527
F0.42288306451612906
aF0.2560483870967742
aF0.017641129032258066
aF0.13659274193548387
aF0.16683467741935484
asI527
(lp528
F0.17384615384615384
aF0.06923076923076923
aF0.13038461538461538
aF0.2611538461538462
aF0.36538461538461536
asI528
(lp529
F0.11157993436474449
aF0.33145804031879983
aF0.05672761368963901
aF0.4350679793717768
aF0.06516643225503985
asI529
(lp530
F0.2593846153846154
aF0.2732307692307692
aF0.2676923076923077
aF0.07723076923076923
aF0.12246153846153846
asI530
(lp531
F0.16202387720295622
aF0.3916998294485503
aF0.3592950540079591
aF0.08072768618533258
aF0.0062535531552018195
asI531
(lp532
F0.059957173447537475
aF0.29807280513918627
aF0.21113490364025697
aF0.29336188436830835
aF0.13747323340471093
asI532
(lp533
F0.24937264742785445
aF0.053952321204516936
aF0.2305520702634881
aF0.21141781681304894
aF0.2547051442910916
asI533
(lp534
F0.1209324915007285
aF0.017969888295288974
aF0.4662457503642545
aF0.15201554152501215
aF0.24283632831471588
asI534
(lp535
F0.05387355298308103
aF0.42920747996438113
aF0.2444345503116652
aF0.005342831700801425
aF0.26714158504007124
asI535
(lp536
F0.2452054794520548
aF0.24986301369863015
aF0.1567123287671233
aF0.1441095890410959
aF0.20410958904109588
asI536
(lp537
F0.0392349190779794
aF0.15890142226581658
aF0.19666503187837175
aF0.13437959784207945
aF0.47081902893575284
asI537
(lp538
F0.256687898089172
aF0.11719745222929936
aF0.2267515923566879
aF0.16910828025477706
aF0.2302547770700637
asI538
(lp539
F0.022526934378060724
aF0.13418217433888344
aF0.21841332027424093
aF0.3354554358472086
aF0.28942213516160625
asI539
(lp540
F0.24601593625498008
aF0.1251660026560425
aF0.30245683930942896
aF0.0650730411686587
aF0.26128818061088976
asI540
(lp541
F0.2618724559023066
aF0.24762550881953868
aF0.10515603799185888
aF0.3205563093622795
aF0.06478968792401628
asI541
(lp542
F0.15972944849115506
aF0.15972944849115506
aF0.31633714880332986
aF0.10509885535900104
aF0.259105098855359
asI542
(lp543
F0.15775193798449613
aF0.3127906976744186
aF0.2372093023255814
aF0.28449612403100777
aF0.007751937984496124
asI543
(lp544
F0.10929909784871616
aF0.0798056904927134
aF0.3289382373351839
aF0.13775156141568357
aF0.34420541290770296
asI544
(lp545
F0.07582139848357203
aF0.011794439764111205
aF0.14574557708508845
aF0.039595619208087615
aF0.7270429654591407
asI545
(lp546
F0.33690658499234305
aF0.3108728943338438
aF0.0638080653394589
aF0.19295558958652373
aF0.09545686574783052
asI546
(lp547
F0.6007509386733417
aF0.07509386733416772
aF0.03128911138923655
aF0.04505632040050062
aF0.24780976220275344
asI547
(lp548
F0.20105820105820105
aF0.4033374033374033
aF0.27146927146927147
aF0.011803011803011803
aF0.11233211233211234
asI548
(lp549
F0.2602813852813853
aF0.031385281385281384
aF0.24134199134199133
aF0.08928571428571429
aF0.3777056277056277
asI549
(lp550
F0.36017628205128205
aF0.12620192307692307
aF0.2796474358974359
aF0.1778846153846154
aF0.05608974358974359
asI550
(lp551
F0.22987503632664924
aF0.27840743969776227
aF0.06131938390002906
aF0.15664051147922115
aF0.2737576285963383
asI551
(lp552
F0.08070175438596491
aF0.17115009746588694
aF0.32397660818713453
aF0.3286549707602339
aF0.09551656920077972
asI552
(lp553
F0.2791803878521771
aF0.11855104281009879
aF0.2283205268935236
aF0.05378704720087816
aF0.32016099524332237
asI553
(lp554
F0.0851895271590465
aF0.37202032043767097
aF0.3212192262602579
aF0.2164908167252833
aF0.005080109417741305
asI554
(lp555
F0.36104651162790696
aF0.04534883720930233
aF0.37093023255813956
aF0.07034883720930232
aF0.15232558139534882
asI555
(lp556
F0.20546244568590938
aF0.3022967101179392
aF0.021415270018621976
aF0.26536312849162014
aF0.20546244568590938
asI556
(lp557
F0.16369455875628716
aF0.3895747599451303
aF0.3484224965706447
aF0.0489254686785551
aF0.04938271604938271
asI557
(lp558
F0.027690700104493208
aF0.2664576802507837
aF0.23824451410658307
aF0.4174503657262278
aF0.050156739811912224
asI558
(lp559
F0.11334169803429528
aF0.3186951066499373
aF0.21539104976997073
aF0.1668757841907152
aF0.18569636135508155
asI559
(lp560
F0.2621359223300971
aF0.44660194174757284
aF0.21229773462783172
aF0.07055016181229773
aF0.008414239482200648
asI560
(lp561
F0.06585475868290483
aF0.3175462336490753
aF0.015787099684258007
aF0.2259810554803789
aF0.37483085250338294
asI561
(lp562
F0.05766167569289583
aF0.1478177763618987
aF0.298502707868748
aF0.30710417330359985
aF0.1889136667728576
asI562
(lp563
F0.26703296703296703
aF0.1434065934065934
aF0.21428571428571427
aF0.21126373626373626
aF0.164010989010989
asI563
(lp564
F0.1930724823604875
aF0.18184733803720335
aF0.19531751122514432
aF0.2450288646568313
aF0.18473380372033354
asI564
(lp565
F0.2849325063845312
aF0.2674206493980299
aF0.13352790952207225
aF0.2969719080627508
aF0.017147026632615834
asI565
(lp566
F0.07816091954022988
aF0.25779967159277506
aF0.15172413793103448
aF0.31133004926108376
aF0.20098522167487684
asI566
(lp567
F0.3115830115830116
aF0.3293436293436293
aF0.155984555984556
aF0.035907335907335906
aF0.16718146718146717
asI567
(lp568
F0.21052631578947367
aF0.23022468451831332
aF0.14958448753462603
aF0.27362265312403816
aF0.1360418590335488
asI568
(lp569
F0.30777903043968435
aF0.3002630590003758
aF0.3096580232995115
aF0.010522360015031942
aF0.07177752724539646
asI569
(lp570
F0.37434179033030157
aF0.03829583532790809
aF0.30828147438966014
aF0.2340832934418382
aF0.044997606510292006
asI570
(lp571
F0.28703347441323585
aF0.14967295113505194
aF0.15313582146979607
aF0.23201231242785686
aF0.17814544055405926
asI571
(lp572
F0.08068362480127186
aF0.16216216216216217
aF0.3624801271860095
aF0.13513513513513514
aF0.2595389507154213
asI572
(lp573
F0.010948905109489052
aF0.4153284671532847
aF0.05474452554744526
aF0.3116788321167883
aF0.2072992700729927
asI573
(lp574
F0.08700764256319812
aF0.07113462669018225
aF0.5132275132275133
aF0.2698412698412698
aF0.058788947677836566
asI574
(lp575
F0.18038597873178416
aF0.11618747538400945
aF0.33398975974793227
aF0.15675462780622293
aF0.2126821583300512
asI575
(lp576
F0.10478834142956281
aF0.12560721721027066
aF0.18806384455239417
aF0.5031228313671062
aF0.0784177654406662
asI576
(lp577
F0.27633426966292135
aF0.2830056179775281
aF0.17521067415730338
aF0.03125
aF0.2341994382022472
asI577
(lp578
F0.14255091103965703
aF0.18381564844587353
aF0.12754555198285103
aF0.4442658092175777
aF0.10182207931404073
asI578
(lp579
F0.268167569108008
aF0.2268452550584212
aF0.2718723282986606
aF0.009119407238529496
aF0.22399544029638074
asI579
(lp580
F0.1650943396226415
aF0.09764150943396227
aF0.41462264150943395
aF0.012264150943396227
aF0.310377358490566
asI580
(lp581
F0.035849056603773584
aF0.42924528301886794
aF0.15283018867924528
aF0.08490566037735849
aF0.2971698113207547
asI581
(lp582
F0.12039045553145336
aF0.1306941431670282
aF0.05260303687635575
aF0.3796095444685466
aF0.31670281995661603
asI582
(lp583
F0.4464012251148545
aF0.1891271056661562
aF0.1669218989280245
aF0.05053598774885146
aF0.14701378254211334
asI583
(lp584
F0.3016122689736532
aF0.10656704679512387
aF0.09830908375933936
aF0.2780180888714117
aF0.2154935116004719
asI584
(lp585
F0.007380073800738007
aF0.15006150061500614
aF0.11562115621156212
aF0.2656826568265683
aF0.4612546125461255
asI585
(lp586
F0.3753993610223642
aF0.00718849840255591
aF0.2939297124600639
aF0.11940894568690096
aF0.20407348242811502
asI586
(lp587
F0.37694704049844235
aF0.3956386292834891
aF0.12238540275923454
aF0.10013351134846461
aF0.004895416110369382
asI587
(lp588
F0.06394615061001262
aF0.212031973075305
aF0.38620109381573414
aF0.29701304164913755
aF0.04080774084981069
asI588
(lp589
F0.34085315832649715
aF0.0840853158326497
aF0.30393765381460214
aF0.10828547990155865
aF0.16283839212469237
asI589
(lp590
F0.18265221017514596
aF0.039616346955796494
aF0.2572977481234362
aF0.15137614678899083
aF0.36905754795663054
asI590
(lp591
F0.1616263440860215
aF0.2657930107526882
aF0.1350806451612903
aF0.30913978494623656
aF0.12836021505376344
asI591
(lp592
F0.21284575714955462
aF0.15096108766994842
aF0.3136427566807314
aF0.12986404125644632
aF0.19268635724331926
asI592
(lp593
F0.20144092219020174
aF0.15821325648414986
aF0.16253602305475504
aF0.25302593659942363
aF0.22478386167146974
asI593
(lp594
F0.28042925727195706
aF0.2239480372776052
aF0.14233267438576674
aF0.2391979666760802
aF0.11409206438859079
asI594
(lp595
F0.3306920232435288
aF0.21077654516640254
aF0.040147913365029056
aF0.028526148969889066
aF0.3898573692551506
asI595
(lp596
F0.21501390176088972
aF0.016682113067655237
aF0.022242817423540315
aF0.5477293790546802
aF0.19833178869323448
asI596
(lp597
F0.4697855750487329
aF0.06757634827810266
aF0.1825860948667966
aF0.06887589343729694
aF0.2111760883690708
asI597
(lp598
F0.17734187349879904
aF0.07846277021617294
aF0.2978382706164932
aF0.2353883106485188
aF0.21096877502001601
asI598
(lp599
F0.1327665140614781
aF0.06409417920209287
aF0.4486592544146501
aF0.14780902550686723
aF0.2066710268149117
asI599
(lp600
F0.031800766283524906
aF0.31264367816091954
aF0.22758620689655173
aF0.2153256704980843
aF0.21264367816091953
asI600
(lp601
F0.06466165413533835
aF0.28721804511278193
aF0.06716791979949875
aF0.1518796992481203
aF0.42907268170426066
asI601
(lp602
F0.22815753734721594
aF0.14938886373924853
aF0.1136260751471254
aF0.22046174739701221
aF0.2883657763693979
asI602
(lp603
F0.1690223792697291
aF0.1166077738515901
aF0.4823321554770318
aF0.0983510011778563
aF0.1336866902237927
asI603
(lp604
F0.2458738891239949
aF0.23741007194244604
aF0.30427422767668216
aF0.21032585696148964
aF0.0021159542953872196
asI604
(lp605
F0.25220680958385877
aF0.11097099621689786
aF0.0949978982765868
aF0.3825136612021858
aF0.15931063472047077
asI605
(lp606
F0.3845242795104619
aF0.19265692854322938
aF0.1136991709435452
aF0.30043426766679826
aF0.008685353335965259
asI606
(lp607
F0.4658676393955185
aF0.040125065138092754
aF0.042209484106305366
aF0.2079207920792079
aF0.24387701928087546
asI607
(lp608
F0.3358386075949367
aF0.14082278481012658
aF0.0490506329113924
aF0.10640822784810126
aF0.36787974683544306
asI608
(lp609
F0.36612903225806454
aF0.3556451612903226
aF0.020161290322580645
aF0.20040322580645162
aF0.05766129032258065
asI609
(lp610
F0.14883474576271186
aF0.05296610169491525
aF0.4030720338983051
aF0.163135593220339
aF0.2319915254237288
asI610
(lp611
F0.1702127659574468
aF0.23023181962527786
aF0.30390600190536676
aF0.09780882819942839
aF0.19784058431248014
asI611
(lp612
F0.24747814391392065
aF0.3187626092804304
aF0.05716207128446537
aF0.32683254875588436
aF0.04976462676529926
asI612
(lp613
F0.0639943741209564
aF0.2390998593530239
aF0.5569620253164557
aF0.07243319268635724
aF0.06751054852320675
asI613
(lp614
F0.09919571045576407
aF0.3200402144772118
aF0.2084450402144772
aF0.27245308310991956
aF0.09986595174262734
asI614
(lp615
F0.12856276531231048
aF0.11764705882352941
aF0.44390539721043054
aF0.2425712553062462
aF0.06731352334748332
asI615
(lp616
F0.2570503929727231
aF0.06472491909385113
aF0.36662043458159965
aF0.15718908922792418
aF0.154415164123902
asI616
(lp617
F0.17461746174617462
aF0.16861686168616863
aF0.16081608160816083
aF0.21032103210321032
aF0.28562856285628563
asI617
(lp618
F0.08567774936061381
aF0.3576300085251492
aF0.19096334185848252
aF0.05541346973572037
aF0.3103154305200341
asI618
(lp619
F0.1875226695683714
aF0.2727602466449039
aF0.05368153790351832
aF0.22052956111715633
aF0.26550598476605003
asI619
(lp620
F0.23979213066072755
aF0.014847809948032665
aF0.1317743132887899
aF0.32108389012620636
aF0.2925018559762435
asI620
(lp621
F0.14662447257383968
aF0.04008438818565401
aF0.0290084388185654
aF0.31223628691983124
aF0.4720464135021097
asI621
(lp622
F0.21070375052675938
aF0.09313105773282765
aF0.40075853350189633
aF0.0
aF0.29540665823851664
asI622
(lp623
F0.27921623512946114
aF0.24317704688593422
aF0.056333100069979006
aF0.14555633310007
aF0.27571728481455565
asI623
(lp624
F0.21390593047034764
aF0.1950920245398773
aF0.3922290388548057
aF0.13006134969325153
aF0.0687116564417178
asI624
(lp625
F0.17752035065748278
aF0.29899812147777083
aF0.2028804007514089
aF0.2213525360050094
aF0.09924859110832812
asI625
(lp626
F0.1551270815074496
aF0.09377738825591586
aF0.34312007011393514
aF0.2992988606485539
aF0.10867659947414549
asI626
(lp627
F0.3505535055350554
aF0.48523985239852396
aF0.1282287822878229
aF0.035977859778597784
aF0.0
asI627
(lp628
F0.2095172885997946
aF0.21704895583704212
aF0.0718931872646354
aF0.281068127353646
aF0.2204724409448819
asI628
(lp629
F0.22382397572078908
aF0.04628224582701062
aF0.334597875569044
aF0.2917298937784522
aF0.1035660091047041
asI629
(lp630
F0.21355833575792843
aF0.24701774803607798
aF0.2670933954029677
aF0.1510037823683445
aF0.1213267384346814
asI630
(lp631
F0.09978118161925602
aF0.33566739606126916
aF0.11903719912472648
aF0.3466083150984683
aF0.09890590809628008
asI631
(lp632
F0.25968436154949787
aF0.08859397417503587
aF0.2966284074605452
aF0.14562410329985653
aF0.20946915351506457
asI632
(lp633
F0.0041109969167523125
aF0.14388489208633093
aF0.697841726618705
aF0.02158273381294964
aF0.13257965056526208
asI633
(lp634
F0.22540309312273774
aF0.234287594603488
aF0.19940769990128332
aF0.19907864429088515
aF0.1418229680816058
asI634
(lp635
F0.20507399577167018
aF0.36448202959830867
aF0.22452431289640593
aF0.05243128964059197
aF0.15348837209302327
asI635
(lp636
F0.11361310133060389
aF0.2511088365745479
aF0.2968270214943705
aF0.07471852610030706
aF0.2637325145001706
asI636
(lp637
F0.32545649838882923
aF0.12495524525599713
aF0.03186537773003938
aF0.2764052989616899
aF0.24131757966344433
asI637
(lp638
F0.3073852295409182
aF0.32884231536926145
aF0.07135728542914171
aF0.1217564870259481
aF0.17065868263473055
asI638
(lp639
F0.24943757030371203
aF0.21006749156355456
aF0.10433070866141732
aF0.17997750281214847
aF0.2561867266591676
asI639
(lp640
F0.06252713851498046
aF0.2718193660442901
aF0.3017802865827182
aF0.3113330438558402
aF0.05254016500217108
asI640
(lp641
F0.0825531914893617
aF0.28638297872340424
aF0.24340425531914894
aF0.1774468085106383
aF0.2102127659574468
asI641
(lp642
F0.2551271534044299
aF0.14629477713973202
aF0.14875581077385835
aF0.27016680339075744
aF0.17965545529122232
asI642
(lp643
F0.17163183637172078
aF0.14406402845709204
aF0.2965762561138284
aF0.13250333481547355
aF0.2552245442418853
asI643
(lp644
F0.0881316098707403
aF0.37661574618096355
aF0.05992949471210341
aF0.2596944770857814
aF0.2156286721504113
asI644
(lp645
F0.26735982176011885
aF0.06795395469736354
aF0.01670998886000743
aF0.357222428518381
aF0.2907538061641292
asI645
(lp646
F0.44149908592321757
aF0.26051188299817185
aF0.08318098720292505
aF0.10191956124314443
aF0.11288848263254113
asI646
(lp647
F0.09563658099222953
aF0.557083084279737
aF0.06754333532576211
aF0.18708906156604901
aF0.09264793783622235
asI647
(lp648
F0.02546816479400749
aF0.31722846441947566
aF0.3430711610486891
aF0.250936329588015
aF0.06329588014981273
asI648
(lp649
F0.19683481701285854
aF0.3013517969007583
aF0.26079788987800856
aF0.07847016155621497
aF0.1625453346521596
asI649
(lp650
F0.02318623784592371
aF0.3137621540762902
aF0.16791323859386686
aF0.20194465220643232
aF0.2931937172774869
asI650
(lp651
F0.20522388059701493
aF0.28565505804311775
aF0.2093698175787728
aF0.10323383084577115
aF0.19651741293532338
asI651
(lp652
F0.1377444860590928
aF0.06117353308364544
aF0.2455264253017062
aF0.1431543903454016
aF0.41240116521015396
asI652
(lp653
F0.1489010989010989
aF0.5379120879120879
aF0.1
aF0.06538461538461539
aF0.1478021978021978
asI653
(lp654
F0.2005921539600296
aF0.14026646928201333
aF0.12694300518134716
aF0.16284233900814213
aF0.36935603256846783
asI654
(lp655
F0.039918809201623814
aF0.07307171853856563
aF0.02165087956698241
aF0.2381596752368065
aF0.6271989174560216
asI655
(lp656
F0.1254390366281987
aF0.19518314099347717
aF0.03662819869543402
aF0.22829904666332163
aF0.4144505770195685
asI656
(lp657
F0.14097199871258448
aF0.2996459607338268
aF0.1647891857096878
aF0.15674283875120695
aF0.2378500160926939
asI657
(lp658
F0.03285024154589372
aF0.12560386473429952
aF0.12608695652173912
aF0.3966183574879227
aF0.3188405797101449
asI658
(lp659
F0.0958904109589041
aF0.1845286059629331
aF0.37630942788074134
aF0.26510878323932313
aF0.0781627719580983
asI659
(lp660
F0.11976301311891663
aF0.1358442657638595
aF0.06390181972069403
aF0.350825222175201
aF0.32966567922132883
asI660
(lp661
F0.10186513629842181
aF0.37254901960784315
aF0.2185557149689144
aF0.12482065997130559
aF0.18220946915351507
asI661
(lp662
F0.26764566556134534
aF0.3093320701089531
aF0.2207484604452866
aF0.11558503079109426
aF0.0866887730933207
asI662
(lp663
F0.41139240506329117
aF0.26951476793248946
aF0.020042194092827006
aF0.29852320675105487
aF0.0005274261603375527
asI663
(lp664
F0.5083829096809086
aF0.12493239588967009
aF0.05083829096809086
aF0.2871822606814494
aF0.028664142779881017
asI664
(lp665
F0.2013888888888889
aF0.32407407407407407
aF0.05654761904761905
aF0.2698412698412698
aF0.14814814814814814
asI665
(lp666
F0.016650016650016652
aF0.27972027972027974
aF0.2917082917082917
aF0.31834831834831834
aF0.09357309357309357
asI666
(lp667
F0.24330803036356372
aF0.2824610467439073
aF0.1346384338793448
aF0.1626048741510188
aF0.1769876148621654
asI667
(lp668
F0.30156657963446476
aF0.25
aF0.05026109660574413
aF0.16253263707571802
aF0.23563968668407312
asI668
(lp669
F0.18696883852691218
aF0.33675637393767704
aF0.1954674220963173
aF0.10623229461756374
aF0.17457507082152973
asI669
(lp670
F0.3920619554695063
aF0.12971926427879962
aF0.3325266214908035
aF0.08276863504356244
aF0.06292352371732816
asI670
(lp671
F0.3636003172085646
aF0.16455194290245836
aF0.06423473433782712
aF0.35368754956383824
aF0.05392545598731166
asI671
(lp672
F0.2148236226714229
aF0.19540229885057472
aF0.04320253666270313
aF0.15774871185097106
aF0.38882282996432815
asI672
(lp673
F0.01678183613030602
aF0.30256663376110565
aF0.14511352418558737
aF0.30256663376110565
aF0.23297137216189537
asI673
(lp674
F0.26576755255850854
aF0.20150733835779452
aF0.14518048393494645
aF0.041253470844902815
aF0.34629115430384766
asI674
(lp675
F0.09919571045576407
aF0.10589812332439678
aF0.338248436103664
aF0.2479892761394102
aF0.20866845397676498
asI675
(lp676
F0.1981747066492829
aF0.21870925684485007
aF0.17992177314211213
aF0.2395697522816167
aF0.1636245110821382
asI676
(lp677
F0.1754982984929509
aF0.3874574623237725
aF0.025279533300923675
aF0.14730189596499757
aF0.2644628099173554
asI677
(lp678
F0.007945516458569807
aF0.2924706772606886
aF0.3439273552780931
aF0.09912977676882331
aF0.2565266742338252
asI678
(lp679
F0.24314128943758573
aF0.23868312757201646
aF0.16906721536351166
aF0.08676268861454046
aF0.2623456790123457
asI679
(lp680
F0.015654118524040254
aF0.26910175177040624
aF0.1949310473350727
aF0.15318673127096533
aF0.36712635109951547
asI680
(lp681
F0.19612794612794612
aF0.05218855218855219
aF0.33754208754208753
aF0.09090909090909091
aF0.32323232323232326
asI681
(lp682
F0.17080994386527668
aF0.326383319967923
aF0.16439454691259023
aF0.26263031275060145
aF0.07578187650360867
asI682
(lp683
F0.19876228613032398
aF0.11212231525300327
aF0.3563887877684747
aF0.27338915180196577
aF0.059337459046232256
asI683
(lp684
F0.4214611872146119
aF0.09726027397260274
aF0.2410958904109589
aF0.217351598173516
aF0.0228310502283105
asI684
(lp685
F0.1373157486423584
aF0.34251357641582625
aF0.0682699767261443
aF0.3351435221101629
aF0.11675717610550815
asI685
(lp686
F0.20865345733926405
aF0.09623938536190861
aF0.2822482814395471
aF0.39304488475535787
aF0.01981399110392236
asI686
(lp687
F0.07524454477050414
aF0.17531978931527464
aF0.1986455981941309
aF0.3333333333333333
aF0.21745673438675697
asI687
(lp688
F0.2888611803823774
aF0.3931837073981712
aF0.10515378221113882
aF0.15336658354114713
aF0.05943474646716542
asI688
(lp689
F0.15387949718248808
aF0.2071954919809276
aF0.2626788036410923
aF0.30082358040745555
aF0.0754226267880364
asI689
(lp690
F0.23539445628997868
aF0.2908315565031983
aF0.4102345415778252
aF0.01023454157782516
aF0.053304904051172705
asI690
(lp691
F0.25947432762836187
aF0.12072127139364303
aF0.19101466992665037
aF0.13905867970660146
aF0.28973105134474325
asI691
(lp692
F0.15093085106382978
aF0.2014627659574468
aF0.2440159574468085
aF0.24168882978723405
aF0.16190159574468085
asI692
(lp693
F0.33225936367297626
aF0.03221908981071285
aF0.23399113975030206
aF0.12404349577124446
aF0.2774869109947644
asI693
(lp694
F0.2817703768624014
aF0.3549517966695881
aF0.2992988606485539
aF0.00043821209465381246
aF0.0635407537248028
asI694
(lp695
F0.13582554517133957
aF0.41682242990654206
aF0.2205607476635514
aF0.1912772585669782
aF0.03551401869158879
asI695
(lp696
F0.35053763440860214
aF0.12258064516129032
aF0.14838709677419354
aF0.04372759856630824
aF0.3347670250896057
asI696
(lp697
F0.1377527033380348
aF0.4000940291490362
aF0.10108133521391631
aF0.31123648330982606
aF0.04983544898918665
asI697
(lp698
F0.019536574284416176
aF0.17401181281235803
aF0.32621535665606544
aF0.26715129486597
aF0.21308496138119037
asI698
(lp699
F0.12732394366197183
aF0.49352112676056337
aF0.0828169014084507
aF0.03830985915492958
aF0.2580281690140845
asI699
(lp700
F0.06102835175396444
aF0.2921672272945699
aF0.071119654012494
aF0.2787121576165305
aF0.29697260932244113
asI700
(lp701
F0.07125132931584545
aF0.24282169443459767
aF0.3516483516483517
aF0.3314427507975895
aF0.002835873803615739
asI701
(lp702
F0.3669590643274854
aF0.19639376218323587
aF0.19395711500974658
aF0.13352826510721247
aF0.10916179337231968
asI702
(lp703
F0.17131474103585656
aF0.1531018782014798
aF0.21570859419464997
aF0.3232783153101878
aF0.13659647125782584
asI703
(lp704
F0.13663616282739036
aF0.16251183338592615
aF0.2587567055853582
aF0.1991164405175134
aF0.24297885768381192
asI704
(lp705
F0.22013949433304272
aF0.16913687881429817
aF0.16259808195292066
aF0.0967741935483871
aF0.35135135135135137
asI705
(lp706
F0.018867924528301886
aF0.651392632524708
aF0.03504043126684636
aF0.2668463611859838
aF0.027852650494159928
asI706
(lp707
F0.21452513966480447
aF0.22033519553072625
aF0.14011173184357542
aF0.20424581005586592
aF0.22078212290502794
asI707
(lp708
F0.26991714467813893
aF0.165710643722116
aF0.1602931803696622
aF0.14435946462715105
aF0.25971956660293183
asI708
(lp709
F0.28495719527109664
aF0.09294741133306156
aF0.2613126783530371
aF0.17121891561353444
aF0.1895637994292703
asI709
(lp710
F0.05707196029776675
aF0.24211272598369374
aF0.2998936547323644
aF0.12867777383906417
aF0.27224388514711095
asI710
(lp711
F0.3025387870239774
aF0.2492947813822285
aF0.09696755994358251
aF0.14915373765867418
aF0.20204513399153737
asI711
(lp712
F0.5645035183737295
aF0.2220484753713839
aF0.09616888193901485
aF0.03831118060985145
aF0.07896794370602032
asI712
(lp713
F0.20202020202020202
aF0.2828282828282828
aF0.19538239538239538
aF0.2658008658008658
aF0.05396825396825397
asI713
(lp714
F0.48145820238843495
aF0.02451288497800126
aF0.009428032683846637
aF0.31112507856693905
aF0.17347580138277813
asI714
(lp715
F0.30151445617255623
aF0.0073428178063331805
aF0.06608536025699863
aF0.2491968793024323
aF0.3758604864616797
asI715
(lp716
F0.449901768172888
aF0.06041257367387033
aF0.26522593320235754
aF0.12475442043222004
aF0.09970530451866405
asI716
(lp717
F0.3947072072072072
aF0.2286036036036036
aF0.04279279279279279
aF0.04504504504504504
aF0.28885135135135137
asI717
(lp718
F0.1330246913580247
aF0.25277777777777777
aF0.23919753086419754
aF0.10061728395061728
aF0.2743827160493827
asI718
(lp719
F0.2604568377336102
aF0.27291604865025215
aF0.1601898546425393
aF0.10768318006526253
aF0.1987540789083358
asI719
(lp720
F0.23352941176470587
aF0.007647058823529412
aF0.2605882352941176
aF0.2676470588235294
aF0.23058823529411765
asI720
(lp721
F0.2960803368966634
aF0.19598315516682863
aF0.04016844833171364
aF0.20537738905085845
aF0.26239067055393583
asI721
(lp722
F0.18513323983169705
aF0.3155680224403927
aF0.07012622720897616
aF0.20371669004207574
aF0.22545582047685833
asI722
(lp723
F0.21952861952861952
aF0.06296296296296296
aF0.2942760942760943
aF0.2356902356902357
aF0.18754208754208754
asI723
(lp724
F0.17730870712401056
aF0.14089709762532981
aF0.274934036939314
aF0.3762532981530343
aF0.030606860158311346
asI724
(lp725
F0.17357222844344905
aF0.09443822321761851
aF0.3497573721537887
aF0.03882045539380366
aF0.34341172079134
asI725
(lp726
F0.38092147955872807
aF0.1791044776119403
aF0.14600908500973395
aF0.2537313432835821
aF0.04023361453601557
asI726
(lp727
F0.04151880766501065
aF0.17636621717530163
aF0.32363378282469835
aF0.10681334279630944
aF0.3516678495386799
asI727
(lp728
F0.16825775656324582
aF0.2568615751789976
aF0.2798329355608592
aF0.2309069212410501
aF0.06414081145584725
asI728
(lp729
F0.25761486835312336
aF0.13939081053175012
aF0.15436241610738255
aF0.24109447599380485
aF0.20753742901393907
asI729
(lp730
F0.1757443718228032
aF0.24618736383442266
aF0.14814814814814814
aF0.17901234567901234
aF0.25090777051561364
asI730
(lp731
F0.09087937234390324
aF0.2955214122262177
aF0.16312520431513566
aF0.16639424648577966
aF0.2840797646289637
asI731
(lp732
F0.23264201983769162
aF0.17162608957018335
aF0.23474601743312293
aF0.2500751427712654
aF0.1109107303877367
asI732
(lp733
F0.061194576768046904
aF0.3620373763283254
aF0.13631366801026018
aF0.1509710516672774
aF0.28948332722609016
asI733
(lp734
F0.29949784791965567
aF0.18077474892395984
aF0.32281205164992827
aF0.04842180774748924
aF0.148493543758967
asI734
(lp735
F0.05372217958557176
aF0.27168073676132004
aF0.48580199539524177
aF0.06139677666922486
aF0.1273983115886416
asI735
(lp736
F0.30255895634721525
aF0.05368790767686904
aF0.33266432513798294
aF0.12042147516307075
aF0.19066733567486202
asI736
(lp737
F0.27839884601514603
aF0.3285250631085467
aF0.04543815362423368
aF0.0018031013342949874
aF0.3458348359177786
asI737
(lp738
F0.2604209657449443
aF0.0004127115146512588
aF0.24102352455633513
aF0.09698720594304581
aF0.40115559224102354
asI738
(lp739
F0.02568593111500292
aF0.4711033274956217
aF0.04786923525977817
aF0.4051371862230006
aF0.050204319906596614
asI739
(lp740
F0.1410693970420933
aF0.1820250284414107
aF0.012893439514599925
aF0.37542662116040953
aF0.28858551384148656
asI740
(lp741
F0.04262968669748331
aF0.49922958397534667
aF0.2963533641499743
aF0.03492552645095018
aF0.1268618387262455
asI741
(lp742
F0.08120748299319729
aF0.16284013605442177
aF0.42091836734693877
aF0.050170068027210885
aF0.2848639455782313
asI742
(lp743
F0.2090970807875085
aF0.00746775288526816
aF0.24779361846571624
aF0.034623217922606926
aF0.5010183299389002
asI743
(lp744
F0.21733588272785215
aF0.0691523263224984
aF0.19694072657743786
aF0.2775653282345443
aF0.2390057361376673
asI744
(lp745
F0.19081967213114753
aF0.25704918032786883
aF0.2937704918032787
aF0.11508196721311476
aF0.14327868852459016
asI745
(lp746
F0.055989583333333336
aF0.08680555555555555
aF0.3359375
aF0.4084201388888889
aF0.11284722222222222
asI746
(lp747
F0.31001890359168244
aF0.005198487712665407
aF0.388468809073724
aF0.14177693761814744
aF0.15453686200378072
asI747
(lp748
F0.25166767738023044
aF0.16070345664038813
aF0.21406913280776227
aF0.33717404487568226
aF0.036385688295936934
asI748
(lp749
F0.1711864406779661
aF0.09435028248587571
aF0.2559322033898305
aF0.26581920903954803
aF0.21271186440677967
asI749
(lp750
F0.3686259244842351
aF0.08407940833008953
aF0.30206305955624757
aF0.17127286882055273
aF0.07395873880887505
asI750
(lp751
F0.12465806955842126
aF0.031652989449003514
aF0.38335287221570924
aF0.0965220789370848
aF0.36381398983978114
asI751
(lp752
F0.12914608327452365
aF0.24488355681016233
aF0.25052928722653495
aF0.05010585744530699
aF0.32533521524347214
asI752
(lp753
F0.20908646800195407
aF0.08549096238397655
aF0.32975085490962386
aF0.30972154372252075
aF0.06595017098192477
asI753
(lp754
F0.2867733125243855
aF0.11978150604760048
aF0.3402262973078424
aF0.0647678501755755
aF0.18845103394459617
asI754
(lp755
F0.09968847352024922
aF0.105028927458834
aF0.3943035157988429
aF0.07387627948375612
aF0.32710280373831774
asI755
(lp756
F0.026390870185449358
aF0.16262482168330955
aF0.22039942938659057
aF0.10485021398002853
aF0.48573466476462196
asI756
(lp757
F0.008382642998027613
aF0.4640039447731755
aF0.4526627218934911
aF0.03155818540433925
aF0.04339250493096647
asI757
(lp758
F0.13259483048002685
aF0.2326283987915408
aF0.2014098690835851
aF0.31957032561262166
aF0.11379657603222558
asI758
(lp759
F0.17890956578517794
aF0.10610512569376428
aF0.3042768527587333
aF0.17564479268690825
aF0.23506366307541626
asI759
(lp760
F0.13952059004302397
aF0.1272280270436386
aF0.3257529194837124
aF0.14628149969268592
aF0.26121696373693915
asI760
(lp761
F0.022843822843822845
aF0.07132867132867132
aF0.3417249417249417
aF0.43916083916083914
aF0.12494172494172494
asI761
(lp762
F0.3650609402205456
aF0.04875217643644805
aF0.046430644225188625
aF0.13000580383052815
aF0.4097504352872896
asI762
(lp763
F0.18237801989578398
aF0.22832780672666983
aF0.1440075793462814
aF0.43675982946470865
aF0.008526764566556135
asI763
(lp764
F0.3542584434654919
aF0.11270190895741557
aF0.027165932452276064
aF0.17254038179148312
aF0.3333333333333333
asI764
(lp765
F0.2510204081632653
aF0.2370262390670554
aF0.08979591836734693
aF0.27113702623906705
aF0.1510204081632653
asI765
(lp766
F0.03598400710795202
aF0.2692136828076411
aF0.334517992003554
aF0.2594402487783207
aF0.1008440693025322
asI766
(lp767
F0.05587092919031969
aF0.2677024200776815
aF0.2237824917836869
aF0.17986256348969226
aF0.2727815954586197
asI767
(lp768
F0.26869158878504673
aF0.13518024032042725
aF0.20360480640854473
aF0.16522029372496663
aF0.2273030707610147
asI768
(lp769
F0.27764797507788164
aF0.28894080996884736
aF0.22897196261682243
aF0.008177570093457943
aF0.19626168224299065
asI769
(lp770
F0.166545981173063
aF0.002172338884866039
aF0.3595220854453295
aF0.3620564808110065
aF0.10970311368573497
asI770
(lp771
F0.12305699481865284
aF0.29468911917098445
aF0.24546632124352333
aF0.21016839378238342
aF0.12661917098445596
asI771
(lp772
F0.29564606741573035
aF0.26615168539325845
aF0.10463483146067416
aF0.1699438202247191
aF0.16362359550561797
asI772
(lp773
F0.27595017566272756
aF0.17885659533695306
aF0.05014372404982434
aF0.26828489300542957
aF0.22676461194506548
asI773
(lp774
F0.2306025140875596
aF0.39228435197225836
aF0.06978760294755093
aF0.15908105765062852
aF0.1482444733420026
asI774
(lp775
F0.27135348226018396
aF0.19579500657030224
aF0.1626149802890933
aF0.13304862023653088
aF0.2371879106438896
asI775
(lp776
F0.10098039215686275
aF0.5656862745098039
aF0.18627450980392157
aF0.028431372549019607
aF0.11862745098039215
asI776
(lp777
F0.12910798122065728
aF0.2596244131455399
aF0.06995305164319249
aF0.33943661971830985
aF0.20187793427230047
asI777
(lp778
F0.24807056229327454
aF0.1944138184490996
aF0.1944138184490996
aF0.08489525909592062
aF0.27820654171260567
asI778
(lp779
F0.36240833654959476
aF0.21265920494017754
aF0.20262446931686606
aF0.032419915090698574
aF0.18988807410266306
asI779
(lp780
F0.15481049562682217
aF0.26034985422740525
aF0.10379008746355685
aF0.21428571428571427
aF0.26676384839650147
asI780
(lp781
F0.2541630148992112
aF0.2791411042944785
aF0.34005258545135847
aF0.11568799298860649
aF0.010955302366345312
asI781
(lp782
F0.28633217993079585
aF0.2673010380622837
aF0.23313148788927335
aF0.09429065743944637
aF0.1189446366782007
asI782
(lp783
F0.2554112554112554
aF0.003246753246753247
aF0.08116883116883117
aF0.30627705627705626
aF0.3538961038961039
asI783
(lp784
F0.12611156022635409
aF0.15278900565885206
aF0.23807599029911075
aF0.1919967663702506
aF0.2910266774454325
asI784
(lp785
F0.3152676801057502
aF0.023793787177792465
aF0.25313945803040316
aF0.37409120951751484
aF0.033707865168539325
asI785
(lp786
F0.09070796460176991
aF0.3219026548672566
aF0.012536873156342183
aF0.3200589970501475
aF0.2547935103244838
asI786
(lp787
F0.05551497443389335
aF0.3473338203067933
aF0.11431701972242513
aF0.3502556610664719
aF0.13257852447041638
asI787
(lp788
F0.08671973188102221
aF0.17972350230414746
aF0.35944700460829493
aF0.1935483870967742
aF0.1805613741097612
asI788
(lp789
F0.0243828101188662
aF0.2782688204815605
aF0.24199939042974702
aF0.20938738189576347
aF0.2459615970740628
asI789
(lp790
F0.2797157622739018
aF0.13791989664082688
aF0.24224806201550386
aF0.2916666666666667
aF0.04844961240310078
asI790
(lp791
F0.013553113553113554
aF0.2663003663003663
aF0.27326007326007323
aF0.1813186813186813
aF0.26556776556776557
asI791
(lp792
F0.23734662576687116
aF0.3006134969325153
aF0.02262269938650307
aF0.0571319018404908
aF0.3822852760736196
asI792
(lp793
F0.07017543859649122
aF0.6196491228070176
aF0.22245614035087719
aF0.014035087719298246
aF0.07368421052631578
asI793
(lp794
F0.28733333333333333
aF0.042
aF0.21666666666666667
aF0.126
aF0.328
asI794
(lp795
F0.2845368916797488
aF0.07299843014128729
aF0.09968602825745683
aF0.19858712715855573
aF0.34419152276295134
asI795
(lp796
F0.07032286598850067
aF0.40778416629809816
aF0.2260061919504644
aF0.022998673153471916
aF0.27288810260946483
asI796
(lp797
F0.0
aF0.6050955414012739
aF0.15477707006369426
aF0.08662420382165605
aF0.1535031847133758
asI797
(lp798
F0.35576077396657874
aF0.23878627968337732
aF0.3280562884784521
aF0.0
aF0.0773966578715919
asI798
(lp799
F0.3112712975098296
aF0.21887287024901703
aF0.19102228047182176
aF0.25229357798165136
aF0.02653997378768021
asI799
(lp800
F0.149800796812749
aF0.10079681274900398
aF0.3219123505976096
aF0.17609561752988048
aF0.251394422310757
asI800
(lp801
F0.2741039878849066
aF0.21352852094901564
aF0.11812216052498738
aF0.3897021706208985
aF0.004543160020191822
asI801
(lp802
F0.36879432624113473
aF0.06273867975995635
aF0.44789961811238405
aF0.10420076377523187
aF0.016366612111292964
asI802
(lp803
F0.12454592631032693
aF0.015568240788790867
aF0.026984950700570835
aF0.44525168655941877
aF0.38764919564089256
asI803
(lp804
F0.3068391866913124
aF0.2735674676524954
aF0.1779112754158965
aF0.025878003696857672
aF0.2158040665434381
asI804
(lp805
F0.0705229793977813
aF0.10538827258320127
aF0.37995245641838354
aF0.3807448494453249
aF0.06339144215530904
asI805
(lp806
F0.2861635220125786
aF0.2940251572327044
aF0.23938679245283018
aF0.15762578616352202
aF0.02279874213836478
asI806
(lp807
F0.015783540022547914
aF0.31717399473882
aF0.31942878617061254
aF0.12589252160841788
aF0.22172115745960166
asI807
(lp808
F0.4739583333333333
aF0.3211805555555556
aF0.18981481481481483
aF0.0
aF0.015046296296296295
asI808
(lp809
F0.23165317315225908
aF0.1721075998955341
aF0.2567249934708801
aF0.09036301906503004
aF0.24915121441629667
asI809
(lp810
F0.3363759296822177
aF0.040229885057471264
aF0.05510480054090602
aF0.253211629479378
aF0.31507775524002707
asI810
(lp811
F0.025526043463263193
aF0.177302518109693
aF0.3259744739565367
aF0.31493618489134184
aF0.15626077957916523
asI811
(lp812
F0.14224137931034483
aF0.1747347480106101
aF0.23740053050397877
aF0.21054376657824933
aF0.23507957559681697
asI812
(lp813
F0.017958826106000875
aF0.1625054752518616
aF0.1660096364432764
aF0.4038545773105563
aF0.24967148488830487
asI813
(lp814
F0.2601655271680461
aF0.017632241813602016
aF0.14213745951781218
aF0.33321338611011153
aF0.24685138539042822
asI814
(lp815
F0.11983471074380166
aF0.315599173553719
aF0.39514462809917356
aF0.019111570247933883
aF0.1503099173553719
asI815
(lp816
F0.30943214629451393
aF0.12319538017324351
aF0.28729547641963427
aF0.09672762271414823
aF0.18334937439846005
asI816
(lp817
F0.11567567567567567
aF0.4810810810810811
aF0.13135135135135134
aF0.00972972972972973
aF0.26216216216216215
asI817
(lp818
F0.016129032258064516
aF0.044965786901270774
aF0.19794721407624633
aF0.4447702834799609
aF0.2961876832844575
asI818
(lp819
F0.45251661918328584
aF0.16096866096866097
aF0.003798670465337132
aF0.07597340930674264
aF0.3067426400759734
asI819
(lp820
F0.027993779160186624
aF0.2748833592534992
aF0.29237947122861585
aF0.29587869362363917
aF0.1088646967340591
asI820
(lp821
F0.062111801242236024
aF0.3628059919620022
aF0.26963829009864815
aF0.2648885641213007
aF0.040555352575812935
asI821
(lp822
F0.29505247376311844
aF0.20419790104947527
aF0.19310344827586207
aF0.22488755622188905
aF0.08275862068965517
asI822
(lp823
F0.09221598877980365
aF0.19144460028050492
aF0.32959326788218796
aF0.1805750350631136
aF0.2061711079943899
asI823
(lp824
F0.23959218351741715
aF0.0886434437836307
aF0.27499291985273294
aF0.22939677145284623
aF0.16737468139337297
asI824
(lp825
F0.031876606683804626
aF0.0005141388174807198
aF0.2442159383033419
aF0.24473007712082262
aF0.4786632390745501
asI825
(lp826
F0.13880855986119145
aF0.21978021978021978
aF0.09080393290919607
aF0.022556390977443608
aF0.5280508964719491
asI826
(lp827
F0.30237077341624563
aF0.1892732219199378
aF0.2479595802565099
aF0.20676253400699574
aF0.05363389040031092
asI827
(lp828
F0.37915851272015655
aF0.27837573385518594
aF0.02201565557729941
aF0.25587084148727984
aF0.06457925636007827
asI828
(lp829
F0.22941176470588234
aF0.10882352941176471
aF0.4117647058823529
aF0.020588235294117647
aF0.22941176470588234
asI829
(lp830
F0.2520908004778972
aF0.17244125846276384
aF0.2660294703305456
aF0.13978494623655913
aF0.16965352449223417
asI830
(lp831
F0.35084280674245394
aF0.031752254018032146
aF0.09094472755782046
aF0.31125049000392
aF0.2152097216777734
asI831
(lp832
F0.10281280310378274
aF0.3355965082444229
aF0.2463627546071775
aF0.18622696411251213
aF0.12900096993210475
asI832
(lp833
F0.24875912408759124
aF0.2840875912408759
aF0.06627737226277372
aF0.14306569343065692
aF0.2578102189781022
asI833
(lp834
F0.3385939741750359
aF0.1563845050215208
aF0.15100430416068866
aF0.13916786226685796
aF0.2148493543758967
asI834
(lp835
F0.33115060804490176
aF0.3091674462114125
aF0.30963517305893357
aF0.023854069223573433
aF0.026192703461178673
asI835
(lp836
F0.3841626538255752
aF0.0454788657035848
aF0.02675227394328518
aF0.49759229534510435
aF0.04601391118245051
asI836
(lp837
F0.3176806859942834
aF0.3527970600244998
aF0.023274806043282973
aF0.08860759493670886
aF0.217639853001225
asI837
(lp838
F0.12975256487628245
aF0.2872661436330718
aF0.12945081472540737
aF0.27579963789981893
aF0.17773083886541943
asI838
(lp839
F0.2996031746031746
aF0.41865079365079366
aF0.012896825396825396
aF0.13392857142857142
aF0.1349206349206349
asI839
(lp840
F0.36716417910447763
aF0.11828358208955224
aF0.17126865671641792
aF0.2600746268656716
aF0.0832089552238806
asI840
(lp841
F0.07320367368989736
aF0.24608319827120476
aF0.25040518638573744
aF0.17233927606699082
aF0.25796866558616965
asI841
(lp842
F0.2590944778853703
aF0.04684637529442554
aF0.24757916775713165
aF0.19576027218005757
aF0.2507197068830149
asI842
(lp843
F0.16424418604651161
aF0.0806686046511628
aF0.1686046511627907
aF0.48401162790697677
aF0.10247093023255814
asI843
(lp844
F0.17624071903087143
aF0.059398202422821414
aF0.22938647909339585
aF0.19226260257913247
aF0.34271199687377885
asI844
(lp845
F0.1326530612244898
aF0.025510204081632654
aF0.36683673469387756
aF0.32857142857142857
aF0.14642857142857144
asI845
(lp846
F0.09621353196772191
aF0.1855990068280571
aF0.19366852886405958
aF0.30012414649286157
aF0.22439478584729983
asI846
(lp847
F0.2212874908558888
aF0.17008046817849304
aF0.1163130943672275
aF0.3182150694952451
aF0.17410387710314557
asI847
(lp848
F0.11022364217252396
aF0.16293929712460065
aF0.006389776357827476
aF0.5950479233226837
aF0.1253993610223642
asI848
(lp849
F0.25033422459893045
aF0.13870320855614973
aF0.2700534759358289
aF0.18081550802139038
aF0.16009358288770054
asI849
(lp850
F0.25763256561328335
aF0.2747723620782003
aF0.037493304767005894
aF0.17461167648634174
aF0.25549009105516873
asI850
(lp851
F0.22064276885043263
aF0.20024721878862795
aF0.1841779975278121
aF0.3856613102595797
aF0.009270704573547589
asI851
(lp852
F0.22394249377937517
aF0.20735416090682887
aF0.23002488249930883
aF0.13298313519491292
aF0.20569532761957424
asI852
(lp853
F0.021267168808152416
aF0.1236154186973859
aF0.2370403190075321
aF0.2875498449268941
aF0.33052724856003546
asI853
(lp854
F0.18540004834421078
aF0.21150592216582065
aF0.13753927967125937
aF0.22963500120860528
aF0.23591974861010395
asI854
(lp855
F0.0013995801259622112
aF0.08537438768369489
aF0.46815955213435967
aF0.10286913925822254
aF0.34219734079776065
asI855
(lp856
F0.04381443298969072
aF0.20919243986254296
aF0.19888316151202748
aF0.16065292096219932
aF0.38745704467353953
asI856
(lp857
F0.06916524701873936
aF0.258603066439523
aF0.12674616695059626
aF0.33492333901192506
aF0.21056218057921636
asI857
(lp858
F0.0522250827510114
aF0.3203383596910629
aF0.1890400882677455
aF0.1621919823464509
aF0.2762044869437293
asI858
(lp859
F0.09711538461538462
aF0.36778846153846156
aF0.27548076923076925
aF0.22067307692307692
aF0.03894230769230769
asI859
(lp860
F0.20534351145038168
aF0.27022900763358776
aF0.22290076335877862
aF0.2549618320610687
aF0.046564885496183206
asI860
(lp861
F0.3351724137931035
aF0.11551724137931034
aF0.28379310344827585
aF0.12379310344827586
aF0.14172413793103447
asI861
(lp862
F0.17357001972386588
aF0.13693998309382924
aF0.19188503803888418
aF0.2192166807551423
aF0.2783882783882784
asI862
(lp863
F0.14358322744599747
aF0.30664972469292673
aF0.11054637865311309
aF0.33714527742482
aF0.10207539178314273
asI863
(lp864
F0.022478736330498177
aF0.21931956257594168
aF0.10996354799513973
aF0.1865127582017011
aF0.4617253948967193
asI864
(lp865
F0.2486873508353222
aF0.1279236276849642
aF0.12601431980906921
aF0.4644391408114558
aF0.03293556085918854
asI865
(lp866
F0.3951841359773371
aF0.00047214353163361664
aF0.14825306893295562
aF0.40321057601510857
aF0.05288007554296506
asI866
(lp867
F0.40076518412242945
aF0.1482544237207078
aF0.0
aF0.09230033476805356
aF0.3586800573888092
asI867
(lp868
F0.38184663536776214
aF0.0903755868544601
aF0.30633802816901406
aF0.0
aF0.2214397496087637
asI868
(lp869
F0.30867518493611296
aF0.29119031607262946
aF0.09448554135843981
aF0.2542030934767989
aF0.05144586415601883
asI869
(lp870
F0.29697396199859255
aF0.0784658691062632
aF0.29134412385643915
aF0.19669247009148488
aF0.13652357494722026
asI870
(lp871
F0.09812286689419795
aF0.4133959044368601
aF0.10622866894197952
aF0.05162116040955631
aF0.33063139931740615
asI871
(lp872
F0.35964912280701755
aF0.23086124401913877
aF0.30023923444976075
aF0.05422647527910686
aF0.05502392344497608
asI872
(lp873
F0.09911054637865312
aF0.048284625158831
aF0.40470139771283353
aF0.2668360864040661
aF0.18106734434561628
asI873
(lp874
F0.05245428296438884
aF0.23387872954764197
aF0.2569778633301251
aF0.4167468719923003
aF0.03994225216554379
asI874
(lp875
F0.13963388676032354
aF0.2609621115368242
aF0.19284802043422733
aF0.17028522775649213
aF0.23627075351213284
asI875
(lp876
F0.044595616024187455
aF0.13756613756613756
aF0.1693121693121693
aF0.34845049130763417
aF0.3000755857898715
asI876
(lp877
F0.15605095541401273
aF0.33160828025477707
aF0.09593949044585988
aF0.3447452229299363
aF0.07165605095541401
asI877
(lp878
F0.0833754421424962
aF0.2516422435573522
aF0.1791308741788782
aF0.23698837796867103
aF0.24886306215260232
asI878
(lp879
F0.3333333333333333
aF0.2375533428165007
aF0.2712185870080607
aF0.07633949739212897
aF0.0815552394499763
asI879
(lp880
F0.30009775171065495
aF0.1300097751710655
aF0.09188660801564028
aF0.20332355816226785
aF0.27468230694037143
asI880
(lp881
F0.37154811715481173
aF0.06485355648535565
aF0.3682008368200837
aF0.11882845188284519
aF0.07656903765690376
asI881
(lp882
F0.16365280289330922
aF0.22423146473779385
aF0.2468354430379747
aF0.195750452079566
aF0.16952983725135623
asI882
(lp883
F0.2983897469602366
aF0.2822872165626027
aF0.15379559645087085
aF0.2612553401248768
aF0.004272099901413079
asI883
(lp884
F0.12042788129744651
aF0.011387163561076604
aF0.2864044168391994
aF0.27915804002760525
aF0.3026224982746722
asI884
(lp885
F0.002307692307692308
aF0.6246153846153846
aF0.12538461538461537
aF0.21153846153846154
aF0.036153846153846154
asI885
(lp886
F0.2565754159957058
aF0.274825550187869
aF0.14868491680085882
aF0.12721417069243157
aF0.19269994632313472
asI886
(lp887
F0.24336043360433604
aF0.025474254742547425
aF0.16964769647696476
aF0.3886178861788618
aF0.17289972899728998
asI887
(lp888
F0.14897680763983628
aF0.23574351978171895
aF0.2098226466575716
aF0.24911323328785812
aF0.156343792633015
asI888
(lp889
F0.1863001745200698
aF0.2918848167539267
aF0.3032286212914485
aF0.08595113438045375
aF0.13263525305410123
asI889
(lp890
F0.26332622601279315
aF0.18523454157782515
aF0.26652452025586354
aF0.0423773987206823
aF0.24253731343283583
asI890
(lp891
F0.026921576277799453
aF0.278189621537261
aF0.27545844713226686
aF0.28209129925868126
aF0.13733905579399142
asI891
(lp892
F0.5436832181018227
aF0.1464487743557511
aF0.22941546197360152
aF0.04085480829666876
aF0.039597737272155875
asI892
(lp893
F0.3852657004830918
aF0.07910628019323672
aF0.16908212560386474
aF0.3502415458937198
aF0.016304347826086956
asI893
(lp894
F0.4573921971252567
aF0.3080082135523614
aF0.09548254620123203
aF0.000513347022587269
aF0.13860369609856263
asI894
(lp895
F0.1055441478439425
aF0.2106776180698152
aF0.20410677618069814
aF0.23080082135523614
aF0.248870636550308
asI895
(lp896
F0.20201511335012595
aF0.2304785894206549
aF0.13425692695214106
aF0.23778337531486146
aF0.19546599496221662
asI896
(lp897
F0.24294478527607363
aF0.05276073619631902
aF0.3754601226993865
aF0.12065439672801637
aF0.2081799591002045
asI897
(lp898
F0.11718188353702372
aF0.25341480948957584
aF0.12221423436376708
aF0.32242990654205606
aF0.18475916606757728
asI898
(lp899
F0.24521072796934865
aF0.2111111111111111
aF0.22528735632183908
aF0.22988505747126436
aF0.08850574712643679
asI899
(lp900
F0.0013066202090592336
aF0.020470383275261322
aF0.40331010452961674
aF0.3127177700348432
aF0.2621951219512195
asI900
(lp901
F0.45991983967935873
aF0.04458917835671343
aF0.0035070140280561123
aF0.47695390781563124
aF0.01503006012024048
asI901
(lp902
F0.13556067588325652
aF0.05222734254992319
aF0.14592933947772657
aF0.30069124423963134
aF0.3655913978494624
asI902
(lp903
F0.39878048780487807
aF0.47073170731707314
aF0.09695121951219512
aF0.007317073170731708
aF0.02621951219512195
asI903
(lp904
F0.267294310274253
aF0.19156774457634057
aF0.23823168235775685
aF0.26033565288579613
aF0.04257060990585346
asI904
(lp905
F0.40109555690809495
aF0.22276323797930614
aF0.036518563603164945
aF0.16737674984783932
aF0.17224589166159465
asI905
(lp906
F0.07250889679715303
aF0.33407473309608543
aF0.12855871886120995
aF0.33274021352313166
aF0.13211743772241993
asI906
(lp907
F0.08512673362027738
aF0.34146341463414637
aF0.24772835963653755
aF0.09277857484457197
aF0.23290291726446677
asI907
(lp908
F0.16753185464841908
aF0.4176498348277489
aF0.08022652194431336
aF0.10004719207173195
aF0.2345445965077867
asI908
(lp909
F0.23544743701129453
aF0.11772371850564727
aF0.005212858384013901
aF0.2154648132059079
aF0.4261511728931364
asI909
(lp910
F0.2842465753424658
aF0.3253424657534247
aF0.009246575342465754
aF0.1345890410958904
aF0.2465753424657534
asI910
(lp911
F0.2777777777777778
aF0.008754208754208754
aF0.2909090909090909
aF0.2915824915824916
aF0.13097643097643097
asI911
(lp912
F0.14468332364904127
aF0.273678094131319
aF0.05607205113306217
aF0.28297501452643814
aF0.24259151656013944
asI912
(lp913
F0.14094707520891364
aF0.3325905292479109
aF0.16100278551532032
aF0.10919220055710306
aF0.2562674094707521
asI913
(lp914
F0.11395540875309662
aF0.2981007431874484
aF0.1952931461601982
aF0.3662262592898431
aF0.026424442609413706
asI914
(lp915
F0.26568466993998907
aF0.254228041462084
aF0.21522094926350246
aF0.027277686852154936
aF0.2375886524822695
asI915
(lp916
F0.44990046449900467
aF0.36297279362972795
aF0.0962176509621765
aF0.07830126078301261
aF0.012607830126078301
asI916
(lp917
F0.18247298919567828
aF0.12805122048819528
aF0.08883553421368548
aF0.23529411764705882
aF0.36534613845538216
asI917
(lp918
F0.02869042110134197
aF0.45812124016658956
aF0.34798704303563166
aF0.11522443313280889
aF0.04997686256362795
asI918
(lp919
F0.24614134849715677
aF0.09545085296506906
aF0.19780666125101543
aF0.08001624695369618
aF0.38058489033306253
asI919
(lp920
F0.11731135066582118
aF0.21559923906150918
aF0.25745085605580215
aF0.3132530120481928
aF0.0963855421686747
asI920
(lp921
F0.3858267716535433
aF0.09153543307086615
aF0.08267716535433071
aF0.11368110236220473
aF0.3262795275590551
asI921
(lp922
F0.3458971338829996
aF0.2889674126423243
aF0.24892029839026306
aF0.08087946603847664
aF0.0353356890459364
asI922
(lp923
F0.1958128078817734
aF0.2348111658456486
aF0.14983579638752054
aF0.3608374384236453
aF0.05870279146141215
asI923
(lp924
F0.26748704663212436
aF0.22538860103626943
aF0.2710492227979275
aF0.02493523316062176
aF0.211139896373057
asI924
(lp925
F0.4805672268907563
aF0.0005252100840336134
aF0.11081932773109243
aF0.39915966386554624
aF0.008928571428571428
asI925
(lp926
F0.23862696443341605
aF0.11993382961124896
aF0.2737799834574028
aF0.2518610421836228
aF0.11579818031430934
asI926
(lp927
F0.1958817317845829
aF0.06810982048574446
aF0.16156282998944033
aF0.06019007391763464
aF0.5142555438225976
asI927
(lp928
F0.26487252124645894
aF0.21352691218130312
aF0.24929178470254956
aF0.16111898016997167
aF0.11118980169971672
asI928
(lp929
F0.2092022509102946
aF0.020191989407480966
aF0.19232042370076133
aF0.2896391923204237
aF0.2886461436610394
asI929
(lp930
F0.10770855332629356
aF0.32312565997888065
aF0.33368532206969376
aF0.007743752199929602
aF0.22773671242520238
asI930
(lp931
F0.11840143155383238
aF0.14703250820161048
aF0.22725917089173875
aF0.29615269907545483
aF0.21115419027736357
asI931
(lp932
F0.13828477636438244
aF0.33606893721789083
aF0.05129257283545342
aF0.2306114074681986
aF0.24374230611407469
asI932
(lp933
F0.19955156950672645
aF0.16218236173393125
aF0.242152466367713
aF0.187593423019432
aF0.2085201793721973
asI933
(lp934
F0.22853053435114504
aF0.05248091603053435
aF0.38883587786259544
aF0.17080152671755724
aF0.15935114503816794
asI934
(lp935
F0.23220102373196835
aF0.06979990693345742
aF0.31642624476500697
aF0.27873429502094
aF0.10283852954862727
asI935
(lp936
F0.06878088962108732
aF0.0457166392092257
aF0.3628500823723229
aF0.17833607907743
aF0.3443163097199341
asI936
(lp937
F0.1422115094908105
aF0.1476348297680024
aF0.2606206688761675
aF0.177463091292558
aF0.2720699005724616
asI937
(lp938
F0.20963541666666666
aF0.3154296875
aF0.2659505208333333
aF0.14095052083333334
aF0.06803385416666667
asI938
(lp939
F0.2014882655981683
aF0.10188895248998282
aF0.1934745277618775
aF0.2678878076702919
aF0.23526044647967945
asI939
(lp940
F0.24778761061946902
aF0.2784450063211125
aF0.24905183312262957
aF0.13653603034134007
aF0.0881795195954488
asI940
(lp941
F0.2109471094710947
aF0.18880688806888068
aF0.03874538745387454
aF0.1937269372693727
aF0.3677736777367774
asI941
(lp942
F0.3032128514056225
aF0.17791164658634537
aF0.10722891566265061
aF0.21325301204819277
aF0.19839357429718876
asI942
(lp943
F0.22936616507067945
aF0.19334245326037391
aF0.1486548107615139
aF0.20611035111719106
aF0.22252621979024167
asI943
(lp944
F0.2049102927289896
aF0.22631413282971358
aF0.3037456720176267
aF0.14919735599622286
aF0.11583254642744728
asI944
(lp945
F0.0673469387755102
aF0.24387755102040817
aF0.21224489795918366
aF0.32551020408163267
aF0.1510204081632653
asI945
(lp946
F0.28342674139311447
aF0.2121697357886309
aF0.07846277021617294
aF0.2622097678142514
aF0.16373098478783027
asI946
(lp947
F0.22454031117397455
aF0.15205091937765206
aF0.14745403111739747
aF0.20155586987270155
aF0.2743988684582744
asI947
(lp948
F0.11066027296200664
aF0.18886019918849134
aF0.1453338251567687
aF0.2600516414607156
aF0.2950940612320177
asI948
(lp949
F0.29281277728482696
aF0.2712215320910973
aF0.08636498077491866
aF0.06773144040224785
aF0.2818692694469092
asI949
(lp950
F0.2604684173172463
aF0.37260468417317244
aF0.2036905606813343
aF0.0035486160397444995
aF0.1596877217885025
asI950
(lp951
F0.10399492707672796
aF0.2501585288522511
aF0.29201014584654406
aF0.2076727964489537
aF0.14616360177552315
asI951
(lp952
F0.018301982714794104
aF0.38179969496695476
aF0.11133706151499746
aF0.26131164209456026
aF0.22724961870869345
asI952
(lp953
F0.01914486279514997
aF0.46266751754945756
aF0.07721761327377154
aF0.198468410976388
aF0.24250159540523292
asI953
(lp954
F0.2823275862068966
aF0.09008620689655172
aF0.22586206896551725
aF0.04741379310344827
aF0.3543103448275862
asI954
(lp955
F0.03660746647335991
aF0.18303733236679956
aF0.35085175788329104
aF0.12033345415005436
aF0.3091699891264951
asI955
(lp956
F0.36955407483341873
aF0.25781650435674014
aF0.005125576627370579
aF0.10661199384930804
aF0.2608918503331625
asI956
(lp957
F0.14335868929198362
aF0.04564072557050907
aF0.5763604447045055
aF0.14745465184318315
aF0.0871854885898186
asI957
(lp958
F0.33730454206999255
aF0.0763216679076694
aF0.35666418466120625
aF0.20215934475055844
aF0.027550260610573342
asI958
(lp959
F0.12512266928361138
aF0.025024533856722278
aF0.12266928361138371
aF0.42198233562315995
aF0.30520117762512267
asI959
(lp960
F0.2465242455069515
aF0.020684977958630044
aF0.2960325534079349
aF0.18752119362495762
aF0.24923702950152593
asI960
(lp961
F0.2632786885245902
aF0.16262295081967212
aF0.049836065573770495
aF0.3081967213114754
aF0.2160655737704918
asI961
(lp962
F0.24247972796233325
aF0.19199581480512687
aF0.2503269683494638
aF0.21318336385037928
aF0.10201412503269683
asI962
(lp963
F0.29924614880367095
aF0.05670272041953458
aF0.23664372336938708
aF0.22549983611930516
aF0.18190757128810225
asI963
(lp964
F0.14713541666666666
aF0.2802734375
aF0.10970052083333333
aF0.14973958333333334
aF0.3131510416666667
asI964
(lp965
F0.21876782658300056
aF0.19680547632629777
aF0.28465487735310896
aF0.15772960638904734
aF0.14204221334854536
asI965
(lp966
F0.25971370143149286
aF0.3693251533742331
aF0.0032719836400817996
aF0.1443762781186094
aF0.2233128834355828
asI966
(lp967
F0.16666666666666666
aF0.1223753280839895
aF0.1643700787401575
aF0.2263779527559055
aF0.32020997375328086
asI967
(lp968
F0.2634656817482302
aF0.26469682979378273
aF0.09695290858725762
aF0.15943367189904586
aF0.2154509079716836
asI968
(lp969
F0.11345646437994723
aF0.7959542656112577
aF0.0712401055408971
aF0.002638522427440633
aF0.016710642040457344
asI969
(lp970
F0.06018333997608609
aF0.1889198884017537
aF0.25627740135512156
aF0.22758070944599443
aF0.2670386608210442
asI970
(lp971
F0.04390380313199105
aF0.2111297539149888
aF0.22706935123042504
aF0.2430089485458613
aF0.27488814317673377
asI971
(lp972
F0.007215480485405051
aF0.19776976057723844
aF0.24893407674647425
aF0.21941620203345358
aF0.32666448015742866
asI972
(lp973
F0.12891566265060242
aF0.5240963855421686
aF0.04819277108433735
aF0.23373493975903614
aF0.06506024096385542
asI973
(lp974
F0.12137285491419657
aF0.15288611544461778
aF0.3029641185647426
aF0.1984399375975039
aF0.22433697347893916
asI974
(lp975
F0.14621329211746523
aF0.2741885625965997
aF0.2874806800618238
aF0.05471406491499227
aF0.23740340030911902
asI975
(lp976
F0.2
aF0.2923076923076923
aF0.2049099836333879
aF0.057283142389525366
aF0.24549918166939444
asI976
(lp977
F0.0855119825708061
aF0.45751633986928103
aF0.011982570806100218
aF0.05010893246187364
aF0.394880174291939
asI977
(lp978
F0.339411520928305
aF0.19229175300455864
aF0.12515540820555326
aF0.006216328222130129
aF0.33692498963945294
asI978
(lp979
F0.20853906476909673
aF0.15045018878884694
aF0.2762126052860877
aF0.1876270694162068
aF0.17717107173976185
asI979
(lp980
F0.2165457184325109
aF0.1462989840348331
aF0.14194484760522497
aF0.2597968069666183
aF0.23541364296081277
asI980
(lp981
F0.4110587226746678
aF0.05915130732961852
aF0.3587655379339906
aF0.12130304329189884
aF0.04972138876982426
asI981
(lp982
F0.34148094895758446
aF0.17038102084831055
aF0.18871315600287564
aF0.22969086987778575
aF0.06973400431344356
asI982
(lp983
F0.25555555555555554
aF0.25
aF0.37430555555555556
aF0.04722222222222222
aF0.07291666666666667
asI983
(lp984
F0.1364036374303315
aF0.26987386330302143
aF0.17776474039307716
aF0.18744499853329422
aF0.22851276034027573
asI984
(lp985
F0.42266571632216676
aF0.11617961511047754
aF0.06628652886671418
aF0.20171062009978616
aF0.1931575196008553
asI985
(lp986
F0.24476398874648328
aF0.16161300406376994
aF0.009690528290090653
aF0.3082213191622382
aF0.27571115973741794
asI986
(lp987
F0.02307969707897584
aF0.2145690587811035
aF0.22250270465200145
aF0.27335016227912007
aF0.26649837720879915
asI987
(lp988
F0.23196448390677027
aF0.32852386237513875
aF0.10599334073251943
aF0.1564927857935627
aF0.17702552719200887
asI988
(lp989
F0.17677286742034942
aF0.03391572456320658
aF0.2541966426858513
aF0.32545392257622474
aF0.20966084275436794
asI989
(lp990
F0.21216617210682492
aF0.09594460929772503
aF0.34223541048466866
aF0.2789317507418398
aF0.07072205736894165
asI990
(lp991
F0.19962962962962963
aF0.10407407407407407
aF0.21444444444444444
aF0.3037037037037037
aF0.17814814814814814
asI991
(lp992
F0.2949061662198391
aF0.11327077747989277
aF0.03485254691689008
aF0.00804289544235925
aF0.5489276139410187
asI992
(lp993
F0.23846402065182318
aF0.13810906744111004
aF0.16521458535011294
aF0.24169086802194256
aF0.21652145853501129
asI993
(lp994
F0.4040728831725616
aF0.35637727759914256
aF0.00964630225080386
aF0.15487674169346194
aF0.07502679528403002
asI994
(lp995
F0.15826538176426982
aF0.1397331356560415
aF0.2475908080059303
aF0.13676797627872497
aF0.31764269829503333
asI995
(lp996
F0.1257645259938838
aF0.25229357798165136
aF0.2824923547400612
aF0.29396024464831805
aF0.04548929663608563
asI996
(lp997
F0.18091521816246897
aF0.1429584959205392
aF0.24441291238027668
aF0.28307910606598086
aF0.1486342674707343
asI997
(lp998
F0.3875251509054326
aF0.1062374245472837
aF0.11348088531187123
aF0.06398390342052314
aF0.32877263581488936
asI998
(lp999
F0.10743427017225748
aF0.19174977334542156
aF0.28014505893019037
aF0.12194016319129647
aF0.2987307343608341
asI999
(lp1000
F0.19668030923146884
aF0.21623465211459755
aF0.21600727603456116
aF0.16757617098681218
aF0.20350159163256026
as.